	.text
	.attribute	4, 16
	.attribute	5, "rv32i2p1_m2p0_f2p2_d2p2_c2p0_zicsr2p0"
	.file	"rnd_output0.c"
	.file	1 "/home/shiyanchu/outline_test" "llvm-install/bin/../lib/clang-runtimes/riscv32/include/bits/alltypes.h"
	.file	2 "/home/shiyanchu/outline_test/outline_cases_4_withc/2024_0727_174743" "rnd_output0.c"
	.file	3 "/home/shiyanchu/outline_test/outline_cases_4_withc/2024_0727_174743" "./rnd_globals.h"
	.file	4 "/home/shiyanchu/outline_test/outline_cases_4_withc/2024_0727_174743" "./csmith.h"
	.file	5 "/home/shiyanchu/outline_test" "linx-mcu-test/Public/tools/csmith/runtime_x86/platform_generic.h"
	.globl	func_40                         # -- Begin function func_40
	.p2align	1
	.type	func_40,@function
func_40:                                # @func_40
.Lfunc_begin0:
	.loc	2 66 0                          # rnd_output0.c:66:0
	.cfi_sections .debug_frame
	.cfi_startproc
# %bb.0:
	addi	sp, sp, -2032
	.cfi_def_cfa_offset 2032
	sw	ra, 2028(sp)                    # 4-byte Folded Spill
	sw	s0, 2024(sp)                    # 4-byte Folded Spill
	sw	s1, 2020(sp)                    # 4-byte Folded Spill
	.cfi_offset ra, -4
	.cfi_offset s0, -8
	.cfi_offset s1, -12
	addi	s0, sp, 2032
	.cfi_def_cfa s0, 0
	lui	a7, 3
	addi	a7, a7, 1840
	sub	sp, sp, a7
	addi	a7, s0, -2048
	addi	a7, a7, -1476
	lui	t0, 4
	sub	t0, s0, t0
	sw	a7, 756(t0)                     # 4-byte Folded Spill
	lui	a7, 1
	addi	a7, a7, 1832
	sub	a7, s0, a7
	lui	t0, 4
	sub	t0, s0, t0
	sw	a7, 732(t0)                     # 4-byte Folded Spill
	lui	a7, 2
	addi	a7, a7, -216
	sub	a7, s0, a7
	lui	t0, 4
	sub	t0, s0, t0
	sw	a7, 736(t0)                     # 4-byte Folded Spill
	lui	a7, 2
	addi	a7, a7, 1832
	sub	a7, s0, a7
	lui	t0, 4
	sub	t0, s0, t0
	sw	a7, 740(t0)                     # 4-byte Folded Spill
	lui	a7, 3
	addi	a7, a7, 972
	sub	a7, s0, a7
	lui	t0, 4
	sub	t0, s0, t0
	sw	a7, 744(t0)                     # 4-byte Folded Spill
	lui	a7, 4
	addi	a7, a7, -1056
	sub	a7, s0, a7
	lui	t0, 4
	sub	t0, s0, t0
	sw	a7, 748(t0)                     # 4-byte Folded Spill
                                        # kill: def $x17 killed $x14
                                        # kill: def $x17 killed $x13
                                        # kill: def $x17 killed $x12
                                        # kill: def $x17 killed $x11
	sw	a0, -24(s0)
	sw	a2, -28(s0)
	sw	a1, -32(s0)
	sw	a4, -36(s0)
	sw	a3, -40(s0)
	sw	a5, -44(s0)
	sw	a6, -48(s0)
.Ltmp0:
	.loc	2 67 15 prologue_end            # rnd_output0.c:67:15
	lui	a0, %hi(g_136)
	addi	a0, a0, %lo(g_136)
	addi	a0, a0, 28
	sw	a0, -52(s0)
	.loc	2 68 15                         # rnd_output0.c:68:15
	lui	a0, %hi(g_69)
	addi	a0, a0, %lo(g_69)
	addi	a0, a0, 36
	sw	a0, -56(s0)
	.loc	2 69 16                         # rnd_output0.c:69:16
	lui	a0, %hi(g_71)
	addi	a0, a0, %lo(g_71)
	sw	a0, -60(s0)
	.loc	2 70 15                         # rnd_output0.c:70:15
	lui	a0, %hi(g_200)
	addi	a0, a0, %lo(g_200)
	sw	a0, -64(s0)
	addi	a1, s0, -64
	.loc	2 71 35                         # rnd_output0.c:71:35
	lui	a0, 4
	sub	a0, s0, a0
	sw	a1, 752(a0)                     # 4-byte Folded Spill
	sw	a1, -400(s0)
	sw	a1, -396(s0)
	li	a0, 0
	lui	a2, 4
	sub	a2, s0, a2
	sw	a0, 760(a2)                     # 4-byte Folded Spill
	sw	a0, -392(s0)
	sw	a1, -388(s0)
	sw	a1, -384(s0)
	sw	a1, -380(s0)
	sw	a0, -376(s0)
	.loc	2 71 90 is_stmt 0               # rnd_output0.c:71:90
	sw	a1, -372(s0)
	sw	a1, -368(s0)
	sw	a0, -364(s0)
	sw	a1, -360(s0)
	sw	a1, -356(s0)
	sw	a1, -352(s0)
	sw	a0, -348(s0)
	.loc	2 71 145                        # rnd_output0.c:71:145
	sw	a1, -344(s0)
	sw	a1, -340(s0)
	sw	a0, -336(s0)
	sw	a1, -332(s0)
	sw	a1, -328(s0)
	sw	a1, -324(s0)
	sw	a1, -320(s0)
	.loc	2 71 198                        # rnd_output0.c:71:198
	sw	a1, -316(s0)
	sw	a0, -312(s0)
	sw	a1, -308(s0)
	sw	a1, -304(s0)
	sw	a1, -300(s0)
	sw	a1, -296(s0)
	sw	a0, -292(s0)
	.loc	2 71 255                        # rnd_output0.c:71:255
	sw	a0, -288(s0)
	sw	a1, -284(s0)
	sw	a1, -280(s0)
	sw	a1, -276(s0)
	sw	a1, -272(s0)
	sw	a1, -268(s0)
	sw	a1, -264(s0)
	.loc	2 71 308                        # rnd_output0.c:71:308
	sw	a1, -260(s0)
	sw	a1, -256(s0)
	sw	a0, -252(s0)
	sw	a1, -248(s0)
	sw	a1, -244(s0)
	sw	a1, -240(s0)
	sw	a0, -236(s0)
	.loc	2 71 363                        # rnd_output0.c:71:363
	sw	a1, -232(s0)
	sw	a1, -228(s0)
	sw	a1, -224(s0)
	sw	a1, -220(s0)
	sw	a1, -216(s0)
	sw	a1, -212(s0)
	sw	a1, -208(s0)
	.loc	2 71 414                        # rnd_output0.c:71:414
	sw	a1, -204(s0)
	sw	a1, -200(s0)
	sw	a0, -196(s0)
	sw	a1, -192(s0)
	sw	a1, -188(s0)
	sw	a0, -184(s0)
	sw	a1, -180(s0)
	.loc	2 71 471                        # rnd_output0.c:71:471
	sw	a1, -176(s0)
	sw	a1, -172(s0)
	sw	a1, -168(s0)
	sw	a1, -164(s0)
	sw	a1, -160(s0)
	sw	a1, -156(s0)
	sw	a1, -152(s0)
	.loc	2 71 522                        # rnd_output0.c:71:522
	sw	a1, -148(s0)
	sw	a1, -144(s0)
	sw	a0, -140(s0)
	sw	a0, -136(s0)
	sw	a1, -132(s0)
	sw	a1, -128(s0)
	sw	a0, -124(s0)
	.loc	2 71 579                        # rnd_output0.c:71:579
	sw	a0, -120(s0)
	sw	a1, -116(s0)
	sw	a1, -112(s0)
	sw	a1, -108(s0)
	sw	a1, -104(s0)
	sw	a1, -100(s0)
	sw	a1, -96(s0)
	.loc	2 71 632                        # rnd_output0.c:71:632
	sw	a1, -92(s0)
	sw	a0, -88(s0)
	sw	a1, -84(s0)
	sw	a1, -80(s0)
	sw	a1, -76(s0)
	sw	a0, -72(s0)
	sw	a0, -68(s0)
	.loc	2 72 15 is_stmt 1               # rnd_output0.c:72:15
	lui	a1, %hi(g_123)
	addi	a1, a1, %lo(g_123)
	sw	a1, -404(s0)
	.loc	2 74 20                         # rnd_output0.c:74:20
	lui	a1, %hi(g_8)
	addi	a1, a1, %lo(g_8)
	addi	a1, a1, 360
	sw	a1, -416(s0)
	.loc	2 75 15                         # rnd_output0.c:75:15
	sw	a0, -420(s0)
	sw	a0, -424(s0)
	li	a0, 1
	sw	a0, -428(s0)
	lui	a0, 904965
	addi	a0, a0, 1900
	sw	a0, -432(s0)
	.loc	2 76 15                         # rnd_output0.c:76:15
	lui	a0, %hi(.L__const.func_40.l_551)
	addi	a1, a0, %lo(.L__const.func_40.l_551)
	addi	a0, s0, -648
	li	a2, 216
	call	memcpy@plt
	.loc	2 77 25                         # rnd_output0.c:77:25
	addi	a0, s0, -608
	.loc	2 77 16 is_stmt 0               # rnd_output0.c:77:16
	sw	a0, -652(s0)
	.loc	2 78 15 is_stmt 1               # rnd_output0.c:78:15
	lui	a0, %hi(.L__const.func_40.l_552)
	addi	a1, a0, %lo(.L__const.func_40.l_552)
	addi	a0, s0, -1232
	li	a2, 576
	call	memcpy@plt
                                        # kill: def $x11 killed $x10
	.loc	2 79 14                         # rnd_output0.c:79:14
	lui	a0, 4
	sub	a0, s0, a0
	lw	a0, 760(a0)                     # 4-byte Folded Reload
	sw	a0, -1236(s0)
	li	a0, 6
	sw	a0, -1240(s0)
	.loc	2 80 20                         # rnd_output0.c:80:20
	lui	a0, %hi(g_3)
	addi	a0, a0, %lo(g_3)
	sw	a0, -1244(s0)
	.loc	2 81 13                         # rnd_output0.c:81:13
	lui	a0, %hi(.L__const.func_40.l_775)
	addi	a1, a0, %lo(.L__const.func_40.l_775)
	addi	a0, s0, -2048
	addi	a0, a0, -168
	li	a2, 972
	call	memcpy@plt
	.loc	2 82 14                         # rnd_output0.c:82:14
	lui	a0, %hi(.L__const.func_40.l_792)
	addi	a1, a0, %lo(.L__const.func_40.l_792)
	addi	a0, s0, -2048
	addi	a0, a0, -488
	li	a2, 320
	call	memcpy@plt
	.loc	2 83 14                         # rnd_output0.c:83:14
	lui	a0, %hi(.L__const.func_40.l_969)
	addi	a1, a0, %lo(.L__const.func_40.l_969)
	addi	a0, s0, -2048
	addi	a0, a0, -848
	li	a2, 360
	call	memcpy@plt
	lui	a1, 4
	sub	a1, s0, a1
	lw	a1, 756(a1)                     # 4-byte Folded Reload
                                        # kill: def $x12 killed $x10
	lui	a0, 4
	sub	a0, s0, a0
	lw	a0, 760(a0)                     # 4-byte Folded Reload
	li	a2, 83
	.loc	2 84 12                         # rnd_output0.c:84:12
	sb	a2, 627(a1)
	.loc	2 85 21                         # rnd_output0.c:85:21
	sw	a0, 620(a1)
	li	a2, 252
	.loc	2 86 13                         # rnd_output0.c:86:13
	sb	a2, 619(a1)
	.loc	2 87 14                         # rnd_output0.c:87:14
	sw	a0, 608(a1)
	li	a2, 4
	sw	a2, 604(a1)
	.loc	2 88 20                         # rnd_output0.c:88:20
	lui	a2, %hi(g_13)
	addi	a2, a2, %lo(g_13)
	sw	a2, 600(a1)
	.loc	2 89 25                         # rnd_output0.c:89:25
	sw	a0, 596(a1)
	lui	a2, 553386
	addi	a2, a2, 1876
	.loc	2 90 13                         # rnd_output0.c:90:13
	sw	a2, 592(a1)
	.loc	2 91 14                         # rnd_output0.c:91:14
	sw	a0, 576(a1)
	sw	a0, 572(a1)
	lui	a2, 218622
	addi	a2, a2, 601
	sw	a2, 568(a1)
	lui	a2, 894192
	addi	a2, a2, -662
	sw	a2, 564(a1)
	.loc	2 92 16                         # rnd_output0.c:92:16
	lui	a2, %hi(g_73)
	addi	a2, a2, %lo(g_73)
	sw	a2, 560(a1)
	.loc	2 94 14                         # rnd_output0.c:94:14
	sh	a0, 474(a1)
	.loc	2 95 24                         # rnd_output0.c:95:24
	addi	a2, s0, -960
	.loc	2 95 14 is_stmt 0               # rnd_output0.c:95:14
	sw	a2, 468(a1)
	li	a2, -1
	.loc	2 96 14 is_stmt 1               # rnd_output0.c:96:14
	sw	a2, 464(a1)
	.loc	2 98 13                         # rnd_output0.c:98:13
	sh	a2, 386(a1)
	addi	a2, s0, -432
	.loc	2 99 14                         # rnd_output0.c:99:14
	sw	a2, 380(a1)
	addi	a2, s0, -2048
	addi	a2, a2, -884
	.loc	2 100 14                        # rnd_output0.c:100:14
	sw	a2, 376(a1)
	.loc	2 101 20                        # rnd_output0.c:101:20
	lui	a2, %hi(g_147)
	addi	a2, a2, %lo(g_147)
	sw	a2, 372(a1)
.Ltmp1:
	.loc	2 103 12                        # rnd_output0.c:103:12
	sw	a0, 368(a1)
	.loc	2 103 10 is_stmt 0              # rnd_output0.c:103:10
	j	.LBB0_1
.LBB0_1:                                # =>This Inner Loop Header: Depth=1
.Ltmp2:
	.loc	2 103 17                        # rnd_output0.c:103:17
	lui	a0, 4
	sub	a0, s0, a0
	lw	a0, 756(a0)                     # 4-byte Folded Reload
	lw	a1, 368(a0)
	li	a0, 1
.Ltmp3:
	.loc	2 103 5                         # rnd_output0.c:103:5
	blt	a0, a1, .LBB0_4
	j	.LBB0_2
.LBB0_2:                                #   in Loop: Header=BB0_1 Depth=1
.Ltmp4:
	.loc	2 104 15 is_stmt 1              # rnd_output0.c:104:15
	lui	a0, 4
	sub	a0, s0, a0
	lw	a0, 756(a0)                     # 4-byte Folded Reload
	lw	a0, 368(a0)
	.loc	2 104 9 is_stmt 0               # rnd_output0.c:104:9
	slli	a1, a0, 2
	addi	a0, s0, -412
	add	a1, a1, a0
	addi	a0, s0, -404
	.loc	2 104 18                        # rnd_output0.c:104:18
	sw	a0, 0(a1)
	.loc	2 104 9                         # rnd_output0.c:104:9
	j	.LBB0_3
.LBB0_3:                                #   in Loop: Header=BB0_1 Depth=1
	.loc	2 103 25 is_stmt 1              # rnd_output0.c:103:25
	lui	a0, 4
	sub	a0, s0, a0
	lw	a1, 756(a0)                     # 4-byte Folded Reload
	lw	a0, 368(a1)
	addi	a0, a0, 1
	sw	a0, 368(a1)
	.loc	2 103 5 is_stmt 0               # rnd_output0.c:103:5
	j	.LBB0_1
.Ltmp5:
.LBB0_4:
	.loc	2 0 5                           # rnd_output0.c:0:5
	lui	a0, 4
	sub	a0, s0, a0
	lw	a1, 756(a0)                     # 4-byte Folded Reload
	li	a0, 0
.Ltmp6:
	.loc	2 105 12 is_stmt 1              # rnd_output0.c:105:12
	sw	a0, 368(a1)
	.loc	2 105 10 is_stmt 0              # rnd_output0.c:105:10
	j	.LBB0_5
.LBB0_5:                                # =>This Inner Loop Header: Depth=1
.Ltmp7:
	.loc	2 105 17                        # rnd_output0.c:105:17
	lui	a0, 4
	sub	a0, s0, a0
	lw	a0, 756(a0)                     # 4-byte Folded Reload
	lw	a1, 368(a0)
	li	a0, 9
.Ltmp8:
	.loc	2 105 5                         # rnd_output0.c:105:5
	blt	a0, a1, .LBB0_8
	j	.LBB0_6
.LBB0_6:                                #   in Loop: Header=BB0_5 Depth=1
.Ltmp9:
	.loc	2 106 16 is_stmt 1              # rnd_output0.c:106:16
	lui	a0, 4
	sub	a0, s0, a0
	lw	a0, 756(a0)                     # 4-byte Folded Reload
	lw	a0, 368(a0)
	.loc	2 106 9 is_stmt 0               # rnd_output0.c:106:9
	slli	a1, a0, 3
	addi	a0, s0, -2048
	addi	a0, a0, -1000
	add	a1, a1, a0
	lui	a0, 519007
	addi	a0, a0, -1952
	.loc	2 106 19                        # rnd_output0.c:106:19
	sw	a0, 4(a1)
	lui	a0, 443408
	addi	a0, a0, -2023
	sw	a0, 0(a1)
	.loc	2 106 9                         # rnd_output0.c:106:9
	j	.LBB0_7
.LBB0_7:                                #   in Loop: Header=BB0_5 Depth=1
	.loc	2 105 26 is_stmt 1              # rnd_output0.c:105:26
	lui	a0, 4
	sub	a0, s0, a0
	lw	a1, 756(a0)                     # 4-byte Folded Reload
	lw	a0, 368(a1)
	addi	a0, a0, 1
	sw	a0, 368(a1)
	.loc	2 105 5 is_stmt 0               # rnd_output0.c:105:5
	j	.LBB0_5
.Ltmp10:
.LBB0_8:
	.loc	2 0 5                           # rnd_output0.c:0:5
	lui	a0, 4
	sub	a0, s0, a0
	lw	a1, 756(a0)                     # 4-byte Folded Reload
	li	a0, 0
.Ltmp11:
	.loc	2 107 12 is_stmt 1              # rnd_output0.c:107:12
	sw	a0, 368(a1)
	.loc	2 107 10 is_stmt 0              # rnd_output0.c:107:10
	j	.LBB0_9
.LBB0_9:                                # =>This Inner Loop Header: Depth=1
.Ltmp12:
	.loc	2 107 17                        # rnd_output0.c:107:17
	lui	a0, 4
	sub	a0, s0, a0
	lw	a0, 756(a0)                     # 4-byte Folded Reload
	lw	a1, 368(a0)
	li	a0, 8
.Ltmp13:
	.loc	2 107 5                         # rnd_output0.c:107:5
	blt	a0, a1, .LBB0_12
	j	.LBB0_10
.LBB0_10:                               #   in Loop: Header=BB0_9 Depth=1
.Ltmp14:
	.loc	2 108 16 is_stmt 1              # rnd_output0.c:108:16
	lui	a0, 4
	sub	a0, s0, a0
	lw	a0, 756(a0)                     # 4-byte Folded Reload
	lw	a0, 368(a0)
	.loc	2 108 9 is_stmt 0               # rnd_output0.c:108:9
	slli	a1, a0, 3
	addi	a0, s0, -2048
	addi	a0, a0, -1088
	add	a1, a1, a0
	li	a0, -1
	.loc	2 108 19                        # rnd_output0.c:108:19
	sw	a0, 4(a1)
	li	a0, -5
	sw	a0, 0(a1)
	.loc	2 108 9                         # rnd_output0.c:108:9
	j	.LBB0_11
.LBB0_11:                               #   in Loop: Header=BB0_9 Depth=1
	.loc	2 107 25 is_stmt 1              # rnd_output0.c:107:25
	lui	a0, 4
	sub	a0, s0, a0
	lw	a1, 756(a0)                     # 4-byte Folded Reload
	lw	a0, 368(a1)
	addi	a0, a0, 1
	sw	a0, 368(a1)
	.loc	2 107 5 is_stmt 0               # rnd_output0.c:107:5
	j	.LBB0_9
.Ltmp15:
.LBB0_12:
	.loc	2 109 52 is_stmt 1              # rnd_output0.c:109:52
	lui	a0, %hi(g_3)
	lw	a0, %lo(g_3)(a0)
	lui	a1, 484211
	addi	a1, a1, -857
	.loc	2 109 56 is_stmt 0              # rnd_output0.c:109:56
	slt	a0, a0, a1
	.loc	2 109 73                        # rnd_output0.c:109:73
	lui	a2, %hi(g_325)
	lw	a1, %lo(g_325+4)(a2)
	lw	a2, %lo(g_325)(a2)
	.loc	2 109 71                        # rnd_output0.c:109:71
	sltu	a0, a0, a2
	snez	a1, a1
	or	a2, a0, a1
	.loc	2 109 40                        # rnd_output0.c:109:40
	lw	a1, -56(s0)
	.loc	2 109 47                        # rnd_output0.c:109:47
	lw	a0, 0(a1)
	or	a0, a0, a2
	sw	a0, 0(a1)
	li	a1, 1
	.loc	2 109 81                        # rnd_output0.c:109:81
	lui	a2, 4
	sub	a2, s0, a2
	sw	a1, 728(a2)                     # 4-byte Folded Spill
	bnez	a0, .LBB0_16
	j	.LBB0_13
.LBB0_13:
	.loc	2 109 164                       # rnd_output0.c:109:164
	lw	a1, -60(s0)
	addi	a0, s0, -24
	.loc	2 109 171                       # rnd_output0.c:109:171
	sw	a0, 0(a1)
	.loc	2 109 159                       # rnd_output0.c:109:159
	lui	a1, %hi(g_467)
	addi	a1, a1, %lo(g_467)
	sw	a0, 12(a1)
	li	a0, 1
	.loc	2 109 112                       # rnd_output0.c:109:112
	lui	a1, 4
	sub	a1, s0, a1
	sw	a0, 720(a1)                     # 4-byte Folded Spill
	call	safe_unary_minus_func_uint8_t_u
	lui	a1, 4
	sub	a1, s0, a1
	lw	a1, 720(a1)                     # 4-byte Folded Reload
	.loc	2 109 219                       # rnd_output0.c:109:219
	lui	a2, 4
	sub	a2, s0, a2
	sw	a1, 724(a2)                     # 4-byte Folded Spill
	bnez	a0, .LBB0_15
	j	.LBB0_14
.LBB0_14:
	.loc	2 109 325                       # rnd_output0.c:109:325
	lui	a1, %hi(g_477)
	lui	a0, 4
	sub	a0, s0, a0
	sw	a1, 716(a0)                     # 4-byte Folded Spill
	addi	a0, s0, -32
	sw	a0, %lo(g_477)(a1)
	.loc	2 109 334                       # rnd_output0.c:109:334
	lui	a1, %hi(g_123)
	addi	a1, a1, %lo(g_123)
	xor	a0, a0, a1
	seqz	a0, a0
	.loc	2 109 362                       # rnd_output0.c:109:362
	lw	a1, -24(s0)
	.loc	2 109 361                       # rnd_output0.c:109:361
	lw	a1, 0(a1)
	.loc	2 109 358                       # rnd_output0.c:109:358
	xor	a0, a0, a1
	.loc	2 109 291                       # rnd_output0.c:109:291
	slli	a0, a0, 24
	srai	a0, a0, 24
	li	a1, -66
	call	safe_add_func_int8_t_s_s
                                        # kill: def $x11 killed $x10
	.loc	2 109 382                       # rnd_output0.c:109:382
	lui	a0, 4
	sub	a0, s0, a0
	lw	a0, 716(a0)                     # 4-byte Folded Reload
	lw	a1, %lo(g_477)(a0)
	.loc	2 109 381                       # rnd_output0.c:109:381
	lw	a0, 0(a1)
	lw	a1, 4(a1)
	.loc	2 109 287                       # rnd_output0.c:109:287
	sw	a1, -28(s0)
	sw	a0, -32(s0)
	.loc	2 109 280                       # rnd_output0.c:109:280
	or	a0, a0, a1
	seqz	a0, a0
	.loc	2 109 395                       # rnd_output0.c:109:395
	lw	a1, -48(s0)
	.loc	2 109 392                       # rnd_output0.c:109:392
	xor	a0, a0, a1
	seqz	a0, a0
	.loc	2 109 410                       # rnd_output0.c:109:410
	lui	a1, %hi(g_116)
	lbu	a1, %lo(g_116)(a1)
	.loc	2 109 251                       # rnd_output0.c:109:251
	call	safe_mul_func_uint8_t_u_u
	.loc	2 109 419                       # rnd_output0.c:109:419
	lhu	a1, -48(s0)
	.loc	2 109 223                       # rnd_output0.c:109:223
	call	safe_div_func_uint16_t_u_u
	.loc	2 109 219                       # rnd_output0.c:109:219
	snez	a0, a0
	lui	a1, 4
	sub	a1, s0, a1
	sw	a0, 724(a1)                     # 4-byte Folded Spill
	j	.LBB0_15
.LBB0_15:
	.loc	2 0 219                         # rnd_output0.c:0:219
	lui	a0, 4
	sub	a0, s0, a0
	lw	a0, 724(a0)                     # 4-byte Folded Reload
	.loc	2 109 219                       # rnd_output0.c:109:219
	andi	a0, a0, 1
	li	a1, -57
	.loc	2 109 85                        # rnd_output0.c:109:85
	call	safe_sub_func_int8_t_s_s
	.loc	2 109 81                        # rnd_output0.c:109:81
	snez	a0, a0
	lui	a1, 4
	sub	a1, s0, a1
	sw	a0, 728(a1)                     # 4-byte Folded Spill
	j	.LBB0_16
.LBB0_16:
	.loc	2 0 81                          # rnd_output0.c:0:81
	lui	a0, 4
	sub	a0, s0, a0
	lw	a0, 728(a0)                     # 4-byte Folded Reload
	.loc	2 109 36                        # rnd_output0.c:109:36
	andi	a0, a0, 1
	.loc	2 109 438                       # rnd_output0.c:109:438
	lw	a3, -36(s0)
	lw	a2, -40(s0)
	li	a1, 0
	.loc	2 109 10                        # rnd_output0.c:109:10
	call	safe_mul_func_int64_t_s_s
	or	a0, a0, a1
.Ltmp16:
	.loc	2 109 9                         # rnd_output0.c:109:9
	beqz	a0, .LBB0_21
	j	.LBB0_17
.LBB0_17:
.Ltmp17:
	.loc	2 111 24 is_stmt 1              # rnd_output0.c:111:24
	lui	a0, 4
	sub	a0, s0, a0
	lw	a1, 756(a0)                     # 4-byte Folded Reload
	lui	a0, %hi(g_147)
	addi	a0, a0, %lo(g_147)
	sw	a0, 356(a1)
.Ltmp18:
	.loc	2 112 20                        # rnd_output0.c:112:20
	lui	a1, %hi(g_325)
	li	a0, -1
	sw	a0, %lo(g_325+4)(a1)
	li	a0, -24
	sw	a0, %lo(g_325)(a1)
	.loc	2 112 14 is_stmt 0              # rnd_output0.c:112:14
	j	.LBB0_18
.LBB0_18:
.Ltmp19:
	.loc	2 112 30                        # rnd_output0.c:112:30
	lui	a1, %hi(g_325)
	lw	a0, %lo(g_325+4)(a1)
	lw	a1, %lo(g_325)(a1)
	.loc	2 112 36                        # rnd_output0.c:112:36
	sltiu	a1, a1, 24
	seqz	a0, a0
	and	a0, a0, a1
.Ltmp20:
	.loc	2 112 9                         # rnd_output0.c:112:9
	beqz	a0, .LBB0_20
	j	.LBB0_19
.LBB0_19:
.Ltmp21:
	.loc	2 114 20 is_stmt 1              # rnd_output0.c:114:20
	lui	a0, 4
	sub	a0, s0, a0
	lw	a0, 756(a0)                     # 4-byte Folded Reload
	lw	a0, 356(a0)
	.loc	2 114 13 is_stmt 0              # rnd_output0.c:114:13
	sw	a0, -20(s0)
	j	.LBB0_254
.Ltmp22:
.LBB0_20:
	.loc	2 116 16 is_stmt 1              # rnd_output0.c:116:16
	lw	a0, -416(s0)
	.loc	2 116 9 is_stmt 0               # rnd_output0.c:116:9
	sw	a0, -20(s0)
	j	.LBB0_254
.Ltmp23:
.LBB0_21:
	.loc	2 120 17 is_stmt 1              # rnd_output0.c:120:17
	lui	a0, 4
	sub	a0, s0, a0
	lw	a1, 756(a0)                     # 4-byte Folded Reload
	lui	a0, %hi(g_70)
	addi	a0, a0, %lo(g_70)
	addi	a0, a0, 80
	sw	a0, 352(a1)
	li	a0, 0
	.loc	2 121 18                        # rnd_output0.c:121:18
	lui	a2, 4
	sub	a2, s0, a2
	sw	a0, 712(a2)                     # 4-byte Folded Spill
	sw	a0, 336(a1)
	sw	a0, 332(a1)
	li	a0, 1
	sw	a0, 328(a1)
	li	a0, -1
	sw	a0, 324(a1)
	.loc	2 123 18                        # rnd_output0.c:123:18
	lui	a0, %hi(g_111)
	addi	a0, a0, %lo(g_111)
	sw	a0, 312(a1)
	lui	a0, 257185
	addi	a0, a0, -146
	.loc	2 124 18                        # rnd_output0.c:124:18
	sw	a0, 308(a1)
	.loc	2 125 18                        # rnd_output0.c:125:18
	lui	a0, %hi(.L__const.func_40.l_646)
	addi	a1, a0, %lo(.L__const.func_40.l_646)
	addi	a0, s0, -2048
	addi	a0, a0, -1456
	li	a2, 288
	call	memcpy@plt
	lui	a1, 4
	sub	a1, s0, a1
	lw	a1, 756(a1)                     # 4-byte Folded Reload
                                        # kill: def $x12 killed $x10
	.loc	2 126 29                        # rnd_output0.c:126:29
	lui	a0, 4
	sub	a0, s0, a0
	lw	a0, 712(a0)                     # 4-byte Folded Reload
	addi	a2, s0, -572
	.loc	2 126 20 is_stmt 0              # rnd_output0.c:126:20
	sw	a2, 16(a1)
	li	a2, 142
	.loc	2 128 17 is_stmt 1              # rnd_output0.c:128:17
	sb	a2, 11(a1)
	.loc	2 129 24                        # rnd_output0.c:129:24
	lui	a2, %hi(g_333)
	addi	a2, a2, %lo(g_333)
	sw	a2, 4(a1)
.Ltmp24:
	.loc	2 131 16                        # rnd_output0.c:131:16
	sw	a0, 0(a1)
	.loc	2 131 14 is_stmt 0              # rnd_output0.c:131:14
	j	.LBB0_22
.LBB0_22:                               # =>This Inner Loop Header: Depth=1
.Ltmp25:
	.loc	2 131 21                        # rnd_output0.c:131:21
	lui	a0, 4
	sub	a0, s0, a0
	lw	a0, 756(a0)                     # 4-byte Folded Reload
	lw	a1, 0(a0)
	li	a0, 1
.Ltmp26:
	.loc	2 131 9                         # rnd_output0.c:131:9
	blt	a0, a1, .LBB0_25
	j	.LBB0_23
.LBB0_23:                               #   in Loop: Header=BB0_22 Depth=1
.Ltmp27:
	.loc	2 132 25 is_stmt 1              # rnd_output0.c:132:25
	lui	a0, 4
	sub	a0, s0, a0
	lw	a1, 756(a0)                     # 4-byte Folded Reload
	addi	a0, s0, -408
	.loc	2 132 19 is_stmt 0              # rnd_output0.c:132:19
	lw	a1, 0(a1)
	.loc	2 132 13                        # rnd_output0.c:132:13
	slli	a2, a1, 2
	addi	a1, s0, -2048
	addi	a1, a1, -1160
	add	a1, a1, a2
	.loc	2 132 22                        # rnd_output0.c:132:22
	sw	a0, 0(a1)
	.loc	2 132 13                        # rnd_output0.c:132:13
	j	.LBB0_24
.LBB0_24:                               #   in Loop: Header=BB0_22 Depth=1
	.loc	2 131 29 is_stmt 1              # rnd_output0.c:131:29
	lui	a0, 4
	sub	a0, s0, a0
	lw	a1, 756(a0)                     # 4-byte Folded Reload
	lw	a0, 0(a1)
	addi	a0, a0, 1
	sw	a0, 0(a1)
	.loc	2 131 9 is_stmt 0               # rnd_output0.c:131:9
	j	.LBB0_22
.Ltmp28:
.LBB0_25:
	.loc	2 0 9                           # rnd_output0.c:0:9
	lui	a0, 4
	sub	a0, s0, a0
	lw	a1, 756(a0)                     # 4-byte Folded Reload
	li	a0, 0
.Ltmp29:
	.loc	2 133 16 is_stmt 1              # rnd_output0.c:133:16
	sw	a0, 0(a1)
	.loc	2 133 14 is_stmt 0              # rnd_output0.c:133:14
	j	.LBB0_26
.LBB0_26:                               # =>This Inner Loop Header: Depth=1
.Ltmp30:
	.loc	2 133 21                        # rnd_output0.c:133:21
	lui	a0, 4
	sub	a0, s0, a0
	lw	a0, 756(a0)                     # 4-byte Folded Reload
	lw	a1, 0(a0)
	li	a0, 0
.Ltmp31:
	.loc	2 133 9                         # rnd_output0.c:133:9
	blt	a0, a1, .LBB0_29
	j	.LBB0_27
.LBB0_27:                               #   in Loop: Header=BB0_26 Depth=1
.Ltmp32:
	.loc	2 134 19 is_stmt 1              # rnd_output0.c:134:19
	lui	a0, 4
	sub	a0, s0, a0
	lw	a0, 756(a0)                     # 4-byte Folded Reload
	lw	a0, 0(a0)
	.loc	2 134 13 is_stmt 0              # rnd_output0.c:134:13
	slli	a1, a0, 2
	addi	a0, s0, -2048
	addi	a0, a0, -1464
	add	a1, a1, a0
	.loc	2 134 22                        # rnd_output0.c:134:22
	lui	a0, %hi(g_73)
	addi	a0, a0, %lo(g_73)
	sw	a0, 0(a1)
	.loc	2 134 13                        # rnd_output0.c:134:13
	j	.LBB0_28
.LBB0_28:                               #   in Loop: Header=BB0_26 Depth=1
	.loc	2 133 29 is_stmt 1              # rnd_output0.c:133:29
	lui	a0, 4
	sub	a0, s0, a0
	lw	a1, 756(a0)                     # 4-byte Folded Reload
	lw	a0, 0(a1)
	addi	a0, a0, 1
	sw	a0, 0(a1)
	.loc	2 133 9 is_stmt 0               # rnd_output0.c:133:9
	j	.LBB0_26
.Ltmp33:
.LBB0_29:
	.loc	2 135 72 is_stmt 1              # rnd_output0.c:135:72
	lui	a0, 4
	sub	a0, s0, a0
	lw	a0, 756(a0)                     # 4-byte Folded Reload
	lui	a1, %hi(g_147)
	.loc	2 135 134 is_stmt 0             # rnd_output0.c:135:134
	lui	a2, 4
	sub	a2, s0, a2
	sw	a1, 708(a2)                     # 4-byte Folded Spill
	lw	a1, 352(a0)
	.loc	2 135 106                       # rnd_output0.c:135:106
	lb	a0, -44(s0)
	.loc	2 135 141                       # rnd_output0.c:135:141
	lui	a2, 4
	sub	a2, s0, a2
	sw	a0, 704(a2)                     # 4-byte Folded Spill
	sb	a0, 0(a1)
	lui	a0, 487851
	addi	a1, a0, -582
	li	a0, -1
	.loc	2 135 201                       # rnd_output0.c:135:201
	call	safe_div_func_int32_t_s_s
	.loc	2 135 171                       # rnd_output0.c:135:171
	andi	a0, a0, 255
	li	a1, 2
	call	safe_rshift_func_uint8_t_u_s
                                        # kill: def $x11 killed $x10
	.loc	2 135 106                       # rnd_output0.c:135:106
	lui	a0, 4
	sub	a0, s0, a0
	lw	a0, 704(a0)                     # 4-byte Folded Reload
	li	a1, 0
	call	safe_mul_func_int8_t_s_s
	lui	a0, 4
	sub	a0, s0, a0
	lw	a1, 708(a0)                     # 4-byte Folded Reload
	.loc	2 135 280                       # rnd_output0.c:135:280
	lhu	a0, -44(s0)
	.loc	2 135 296                       # rnd_output0.c:135:296
	lhu	a1, %lo(g_147)(a1)
	.loc	2 135 23                        # rnd_output0.c:135:23
	call	safe_add_func_uint16_t_u_u
	.loc	2 135 303                       # rnd_output0.c:135:303
	lui	a2, %hi(g_325)
	lw	a1, %lo(g_325+4)(a2)
	lw	a2, %lo(g_325)(a2)
	.loc	2 135 301                       # rnd_output0.c:135:301
	sltu	a0, a0, a2
	snez	a1, a1
	or	a2, a0, a1
	.loc	2 135 11                        # rnd_output0.c:135:11
	lui	a0, %hi(g_200)
	lw	a1, %lo(g_200)(a0)
	.loc	2 135 18                        # rnd_output0.c:135:18
	lw	a0, 0(a1)
	or	a0, a0, a2
	sw	a0, 0(a1)
	j	.LBB0_30
.Ltmp34:
.LBB0_30:
	.loc	2 137 16 is_stmt 1              # rnd_output0.c:137:16
	lui	a1, %hi(g_642)
	li	a0, 0
	sh	a0, %lo(g_642)(a1)
	.loc	2 137 10 is_stmt 0              # rnd_output0.c:137:10
	j	.LBB0_31
.LBB0_31:                               # =>This Loop Header: Depth=1
                                        #     Child Loop BB0_33 Depth 2
                                        #     Child Loop BB0_37 Depth 2
                                        #     Child Loop BB0_41 Depth 2
.Ltmp35:
	.loc	2 137 22                        # rnd_output0.c:137:22
	lui	a0, %hi(g_642)
	lhu	a1, %lo(g_642)(a0)
	li	a0, 2
.Ltmp36:
	.loc	2 137 5                         # rnd_output0.c:137:5
	blt	a0, a1, .LBB0_46
	j	.LBB0_32
.LBB0_32:                               #   in Loop: Header=BB0_31 Depth=1
.Ltmp37:
	.loc	2 139 18 is_stmt 1              # rnd_output0.c:139:18
	lui	a0, %hi(.L__const.func_40.l_764)
	addi	a1, a0, %lo(.L__const.func_40.l_764)
	addi	a0, s0, -2048
	addi	a0, a0, -1872
	li	a2, 384
	call	memcpy@plt
	lui	a0, 4
	sub	a0, s0, a0
	lw	a2, 732(a0)                     # 4-byte Folded Reload
	li	a0, 1
	.loc	2 140 17                        # rnd_output0.c:140:17
	sw	a0, 2004(a2)
	li	a1, 0
	.loc	2 141 17                        # rnd_output0.c:141:17
	lui	a0, 4
	sub	a0, s0, a0
	sw	a1, 700(a0)                     # 4-byte Folded Spill
	sw	a1, 2000(a2)
	sw	a1, 1996(a2)
	sw	a1, 1992(a2)
	sw	a1, 1988(a2)
	sw	a1, 1984(a2)
	addi	a5, s0, -2048
	addi	a5, a5, -1892
	lui	a0, 4
	sub	a0, s0, a0
	sw	a5, 664(a0)                     # 4-byte Folded Spill
	addi	a6, s0, -2048
	addi	a6, a6, -1896
	.loc	2 142 37                        # rnd_output0.c:142:37
	lui	a0, 4
	sub	a0, s0, a0
	sw	a6, 668(a0)                     # 4-byte Folded Spill
	sw	a6, 1600(a2)
	sw	a5, 1604(a2)
	sw	a6, 1608(a2)
	.loc	2 142 69 is_stmt 0              # rnd_output0.c:142:69
	sw	a1, 1612(a2)
	sw	a1, 1616(a2)
	lui	a0, %hi(g_8)
	addi	a0, a0, %lo(g_8)
	addi	a0, a0, 480
	lui	a3, 4
	sub	a3, s0, a3
	sw	a0, 696(a3)                     # 4-byte Folded Spill
	sw	a0, 1620(a2)
	.loc	2 142 103                       # rnd_output0.c:142:103
	sw	a1, 1624(a2)
	sw	a1, 1628(a2)
	lui	a3, %hi(g_3)
	addi	a4, a3, %lo(g_3)
	lui	a3, 4
	sub	a3, s0, a3
	sw	a4, 672(a3)                     # 4-byte Folded Spill
	sw	a4, 1632(a2)
	.loc	2 142 128                       # rnd_output0.c:142:128
	sw	a0, 1636(a2)
	sw	a5, 1640(a2)
	sw	a0, 1644(a2)
	.loc	2 142 170                       # rnd_output0.c:142:170
	sw	a4, 1648(a2)
	sw	a0, 1652(a2)
	sw	a0, 1656(a2)
	.loc	2 142 205                       # rnd_output0.c:142:205
	sw	a0, 1660(a2)
	.loc	2 142 221                       # rnd_output0.c:142:221
	addi	a3, s0, -2048
	addi	a3, a3, -1744
	.loc	2 142 205                       # rnd_output0.c:142:205
	sw	a3, 1664(a2)
	sw	a0, 1668(a2)
	.loc	2 142 254                       # rnd_output0.c:142:254
	sw	a1, 1672(a2)
	sw	a5, 1676(a2)
	sw	a0, 1680(a2)
	.loc	2 142 289                       # rnd_output0.c:142:289
	sw	a1, 1684(a2)
	sw	a0, 1688(a2)
	sw	a0, 1692(a2)
	.loc	2 142 330                       # rnd_output0.c:142:330
	sw	a6, 1696(a2)
	sw	a4, 1700(a2)
	sw	a0, 1704(a2)
	.loc	2 142 361                       # rnd_output0.c:142:361
	sw	a0, 1708(a2)
	sw	a0, 1712(a2)
	sw	a4, 1716(a2)
	.loc	2 142 396                       # rnd_output0.c:142:396
	sw	a5, 1720(a2)
	sw	a5, 1724(a2)
	sw	a0, 1728(a2)
	.loc	2 142 432                       # rnd_output0.c:142:432
	sw	a5, 1732(a2)
	sw	a3, 1736(a2)
	sw	a6, 1740(a2)
	.loc	2 142 475                       # rnd_output0.c:142:475
	sw	a0, 1744(a2)
	sw	a0, 1748(a2)
	sw	a5, 1752(a2)
	.loc	2 142 515                       # rnd_output0.c:142:515
	sw	a6, 1756(a2)
	sw	a5, 1760(a2)
	sw	a6, 1764(a2)
	.loc	2 142 547                       # rnd_output0.c:142:547
	sw	a1, 1768(a2)
	sw	a1, 1772(a2)
	sw	a0, 1776(a2)
	.loc	2 142 581                       # rnd_output0.c:142:581
	sw	a1, 1780(a2)
	sw	a1, 1784(a2)
	sw	a4, 1788(a2)
	.loc	2 142 608                       # rnd_output0.c:142:608
	sw	a0, 1792(a2)
	sw	a5, 1796(a2)
	sw	a0, 1800(a2)
	.loc	2 142 648                       # rnd_output0.c:142:648
	sw	a4, 1804(a2)
	sw	a0, 1808(a2)
	sw	a0, 1812(a2)
	.loc	2 142 683                       # rnd_output0.c:142:683
	sw	a0, 1816(a2)
	sw	a3, 1820(a2)
	sw	a0, 1824(a2)
	.loc	2 142 732                       # rnd_output0.c:142:732
	sw	a1, 1828(a2)
	sw	a5, 1832(a2)
	sw	a0, 1836(a2)
	.loc	2 142 769                       # rnd_output0.c:142:769
	sw	a1, 1840(a2)
	sw	a0, 1844(a2)
	sw	a0, 1848(a2)
	.loc	2 142 808                       # rnd_output0.c:142:808
	sw	a6, 1852(a2)
	sw	a4, 1856(a2)
	sw	a0, 1860(a2)
	.loc	2 142 839                       # rnd_output0.c:142:839
	sw	a0, 1864(a2)
	sw	a0, 1868(a2)
	sw	a4, 1872(a2)
	.loc	2 142 874                       # rnd_output0.c:142:874
	sw	a5, 1876(a2)
	sw	a5, 1880(a2)
	sw	a0, 1884(a2)
	.loc	2 142 912                       # rnd_output0.c:142:912
	sw	a5, 1888(a2)
	sw	a3, 1892(a2)
	sw	a6, 1896(a2)
	.loc	2 142 953                       # rnd_output0.c:142:953
	sw	a0, 1900(a2)
	sw	a0, 1904(a2)
	sw	a5, 1908(a2)
	.loc	2 142 993                       # rnd_output0.c:142:993
	sw	a6, 1912(a2)
	sw	a5, 1916(a2)
	sw	a6, 1920(a2)
	.loc	2 142 1025                      # rnd_output0.c:142:1025
	sw	a1, 1924(a2)
	sw	a1, 1928(a2)
	sw	a0, 1932(a2)
	.loc	2 142 1061                      # rnd_output0.c:142:1061
	sw	a1, 1936(a2)
	sw	a1, 1940(a2)
	sw	a4, 1944(a2)
	.loc	2 142 1086                      # rnd_output0.c:142:1086
	sw	a0, 1948(a2)
	sw	a5, 1952(a2)
	sw	a0, 1956(a2)
	.loc	2 142 1126                      # rnd_output0.c:142:1126
	sw	a4, 1960(a2)
	sw	a0, 1964(a2)
	sw	a0, 1968(a2)
	.loc	2 142 1161                      # rnd_output0.c:142:1161
	sw	a0, 1972(a2)
	sw	a3, 1976(a2)
	sw	a0, 1980(a2)
	.loc	2 145 18 is_stmt 1              # rnd_output0.c:145:18
	sw	a1, 1548(a2)
	lui	a0, 2
	addi	a0, a0, -1860
	.loc	2 146 18                        # rnd_output0.c:146:18
	sh	a0, 1546(a2)
	.loc	2 147 45                        # rnd_output0.c:147:45
	sw	a1, 584(a2)
	addi	a0, s0, -1240
	lui	a3, 4
	sub	a3, s0, a3
	sw	a0, 676(a3)                     # 4-byte Folded Spill
	sw	a0, 588(a2)
	lui	a3, %hi(g_325)
	addi	a4, a3, %lo(g_325)
	lui	a3, 4
	sub	a3, s0, a3
	sw	a4, 680(a3)                     # 4-byte Folded Spill
	sw	a4, 592(a2)
	sw	a1, 596(a2)
	.loc	2 147 79 is_stmt 0              # rnd_output0.c:147:79
	sw	a1, 600(a2)
	sw	a4, 604(a2)
	sw	a0, 608(a2)
	lui	a3, %hi(g_123)
	addi	a3, a3, %lo(g_123)
	lui	a5, 4
	sub	a5, s0, a5
	sw	a3, 684(a5)                     # 4-byte Folded Spill
	sw	a3, 612(a2)
	.loc	2 147 111                       # rnd_output0.c:147:111
	sw	a1, 616(a2)
	.loc	2 147 122                       # rnd_output0.c:147:122
	li	a5, 17
	slli	a5, a5, 8
	sub	t0, s0, a5
	.loc	2 147 111                       # rnd_output0.c:147:111
	sw	t0, 620(a2)
	sw	a1, 624(a2)
	sw	a0, 628(a2)
	.loc	2 147 148                       # rnd_output0.c:147:148
	sw	a0, 632(a2)
	sw	a3, 636(a2)
	sw	a0, 640(a2)
	sw	a1, 644(a2)
	.loc	2 147 180                       # rnd_output0.c:147:180
	sw	a0, 648(a2)
	sw	a3, 652(a2)
	lui	a5, 1
	addi	a5, a5, 264
	sub	a5, s0, a5
	lui	a6, 4
	sub	a6, s0, a6
	sw	a5, 688(a6)                     # 4-byte Folded Spill
	sw	a5, 656(a2)
	sw	a3, 660(a2)
	.loc	2 147 215                       # rnd_output0.c:147:215
	lui	a6, 1
	addi	a6, a6, 240
	sub	a6, s0, a6
	.loc	2 147 213                       # rnd_output0.c:147:213
	sw	a6, 664(a2)
	sw	a0, 668(a2)
	sw	a0, 672(a2)
	sw	a3, 676(a2)
	.loc	2 147 246                       # rnd_output0.c:147:246
	sw	a3, 680(a2)
	sw	a4, 684(a2)
	sw	a0, 688(a2)
	sw	a4, 692(a2)
	.loc	2 147 276                       # rnd_output0.c:147:276
	sw	a6, 696(a2)
	sw	a1, 700(a2)
	sw	a3, 704(a2)
	sw	a4, 708(a2)
	.loc	2 147 311                       # rnd_output0.c:147:311
	sw	a4, 712(a2)
	sw	a4, 716(a2)
	sw	a3, 720(a2)
	sw	a1, 724(a2)
	.loc	2 147 343                       # rnd_output0.c:147:343
	sw	a3, 728(a2)
	sw	a1, 732(a2)
	.loc	2 147 361                       # rnd_output0.c:147:361
	lui	a7, 1
	addi	a7, a7, 248
	sub	a7, s0, a7
	.loc	2 147 343                       # rnd_output0.c:147:343
	lui	t1, 4
	sub	t1, s0, t1
	sw	a7, 692(t1)                     # 4-byte Folded Spill
	sw	a7, 736(a2)
	sw	a7, 740(a2)
	.loc	2 147 383                       # rnd_output0.c:147:383
	sw	a3, 744(a2)
	sw	a0, 748(a2)
	sw	a4, 752(a2)
	sw	a0, 756(a2)
	.loc	2 147 413                       # rnd_output0.c:147:413
	sw	a0, 760(a2)
	sw	a4, 764(a2)
	sw	a5, 768(a2)
	sw	a4, 772(a2)
	.loc	2 147 446                       # rnd_output0.c:147:446
	sw	a7, 776(a2)
	sw	a0, 780(a2)
	sw	a7, 784(a2)
	sw	a5, 788(a2)
	.loc	2 147 485                       # rnd_output0.c:147:485
	sw	a4, 792(a2)
	sw	t0, 796(a2)
	sw	a0, 800(a2)
	sw	a0, 804(a2)
	.loc	2 147 518                       # rnd_output0.c:147:518
	sw	a0, 808(a2)
	sw	a0, 812(a2)
	sw	a0, 816(a2)
	sw	a0, 820(a2)
	.loc	2 147 548                       # rnd_output0.c:147:548
	sw	a7, 824(a2)
	sw	a0, 828(a2)
	sw	a0, 832(a2)
	sw	a7, 836(a2)
	.loc	2 147 584                       # rnd_output0.c:147:584
	sw	a0, 840(a2)
	sw	a4, 844(a2)
	sw	a4, 848(a2)
	sw	a4, 852(a2)
	.loc	2 147 614                       # rnd_output0.c:147:614
	sw	a1, 856(a2)
	sw	a5, 860(a2)
	sw	a7, 864(a2)
	sw	a4, 868(a2)
	.loc	2 147 652                       # rnd_output0.c:147:652
	sw	a3, 872(a2)
	sw	a4, 876(a2)
	sw	a7, 880(a2)
	sw	a7, 884(a2)
	.loc	2 147 688                       # rnd_output0.c:147:688
	sw	a3, 888(a2)
	sw	a0, 892(a2)
	sw	a3, 896(a2)
	sw	a0, 900(a2)
	.loc	2 147 720                       # rnd_output0.c:147:720
	sw	a3, 904(a2)
	sw	a0, 908(a2)
	sw	a5, 912(a2)
	sw	a0, 916(a2)
	.loc	2 147 753                       # rnd_output0.c:147:753
	sw	a7, 920(a2)
	sw	t0, 924(a2)
	sw	a1, 928(a2)
	sw	a5, 932(a2)
	.loc	2 147 794                       # rnd_output0.c:147:794
	sw	a1, 936(a2)
	sw	a0, 940(a2)
	sw	a3, 944(a2)
	sw	a4, 948(a2)
	.loc	2 147 826                       # rnd_output0.c:147:826
	sw	a0, 952(a2)
	sw	a4, 956(a2)
	sw	a0, 960(a2)
	sw	a0, 964(a2)
	.loc	2 147 856                       # rnd_output0.c:147:856
	sw	a3, 968(a2)
	sw	a0, 972(a2)
	sw	a0, 976(a2)
	sw	a7, 980(a2)
	.loc	2 147 889                       # rnd_output0.c:147:889
	sw	a0, 984(a2)
	sw	a1, 988(a2)
	sw	a4, 992(a2)
	sw	a1, 996(a2)
	.loc	2 147 923                       # rnd_output0.c:147:923
	sw	a1, 1000(a2)
	sw	a4, 1004(a2)
	sw	a1, 1008(a2)
	sw	a4, 1012(a2)
	.loc	2 147 957                       # rnd_output0.c:147:957
	sw	a7, 1016(a2)
	sw	a1, 1020(a2)
	sw	a7, 1024(a2)
	sw	a5, 1028(a2)
	.loc	2 147 998                       # rnd_output0.c:147:998
	sw	a3, 1032(a2)
	sw	a1, 1036(a2)
	sw	a0, 1040(a2)
	sw	a0, 1044(a2)
	.loc	2 147 1030                      # rnd_output0.c:147:1030
	sw	a3, 1048(a2)
	sw	a0, 1052(a2)
	sw	a7, 1056(a2)
	sw	a3, 1060(a2)
	.loc	2 147 1065                      # rnd_output0.c:147:1065
	sw	a7, 1064(a2)
	sw	a0, 1068(a2)
	sw	a1, 1072(a2)
	sw	a7, 1076(a2)
	.loc	2 147 1103                      # rnd_output0.c:147:1103
	sw	a1, 1080(a2)
	sw	t0, 1084(a2)
	sw	a4, 1088(a2)
	sw	a4, 1092(a2)
	.loc	2 147 1138                      # rnd_output0.c:147:1138
	sw	a0, 1096(a2)
	sw	a5, 1100(a2)
	sw	a0, 1104(a2)
	sw	a3, 1108(a2)
	.loc	2 147 1171                      # rnd_output0.c:147:1171
	sw	a3, 1112(a2)
	sw	a1, 1116(a2)
	sw	a0, 1120(a2)
	sw	a7, 1124(a2)
	.loc	2 147 1206                      # rnd_output0.c:147:1206
	sw	a0, 1128(a2)
	sw	a1, 1132(a2)
	sw	a3, 1136(a2)
	sw	a4, 1140(a2)
	.loc	2 147 1238                      # rnd_output0.c:147:1238
	sw	a1, 1144(a2)
	sw	a0, 1148(a2)
	sw	a1, 1152(a2)
	sw	a1, 1156(a2)
	.loc	2 147 1274                      # rnd_output0.c:147:1274
	sw	a7, 1160(a2)
	sw	a4, 1164(a2)
	sw	a5, 1168(a2)
	sw	a5, 1172(a2)
	.loc	2 147 1313                      # rnd_output0.c:147:1313
	sw	a3, 1176(a2)
	sw	a3, 1180(a2)
	sw	a3, 1184(a2)
	sw	a3, 1188(a2)
	.loc	2 147 1343                      # rnd_output0.c:147:1343
	sw	a3, 1192(a2)
	sw	a4, 1196(a2)
	sw	a7, 1200(a2)
	sw	a0, 1204(a2)
	.loc	2 147 1376                      # rnd_output0.c:147:1376
	sw	a3, 1208(a2)
	sw	a0, 1212(a2)
	sw	a7, 1216(a2)
	sw	a7, 1220(a2)
	.loc	2 147 1414                      # rnd_output0.c:147:1414
	sw	a1, 1224(a2)
	sw	a0, 1228(a2)
	sw	a4, 1232(a2)
	sw	a0, 1236(a2)
	.loc	2 147 1446                      # rnd_output0.c:147:1446
	sw	a0, 1240(a2)
	sw	a4, 1244(a2)
	sw	a0, 1248(a2)
	sw	a3, 1252(a2)
	.loc	2 147 1476                      # rnd_output0.c:147:1476
	sw	a7, 1256(a2)
	sw	a3, 1260(a2)
	sw	a0, 1264(a2)
	sw	a5, 1268(a2)
	.loc	2 147 1512                      # rnd_output0.c:147:1512
	sw	a0, 1272(a2)
	sw	a4, 1276(a2)
	sw	a0, 1280(a2)
	sw	a1, 1284(a2)
	.loc	2 147 1544                      # rnd_output0.c:147:1544
	sw	a4, 1288(a2)
	sw	a0, 1292(a2)
	sw	a7, 1296(a2)
	sw	a4, 1300(a2)
	.loc	2 147 1577                      # rnd_output0.c:147:1577
	sw	a7, 1304(a2)
	sw	a1, 1308(a2)
	sw	a5, 1312(a2)
	sw	a7, 1316(a2)
	.loc	2 147 1618                      # rnd_output0.c:147:1618
	sw	a0, 1320(a2)
	sw	a1, 1324(a2)
	sw	a4, 1328(a2)
	sw	a3, 1332(a2)
	.loc	2 147 1650                      # rnd_output0.c:147:1650
	sw	a3, 1336(a2)
	sw	a5, 1340(a2)
	sw	a7, 1344(a2)
	sw	a4, 1348(a2)
	.loc	2 147 1686                      # rnd_output0.c:147:1686
	sw	a3, 1352(a2)
	sw	t0, 1356(a2)
	sw	a3, 1360(a2)
	sw	a7, 1364(a2)
	.loc	2 147 1722                      # rnd_output0.c:147:1722
	sw	a4, 1368(a2)
	sw	a0, 1372(a2)
	sw	a3, 1376(a2)
	sw	a3, 1380(a2)
	.loc	2 147 1754                      # rnd_output0.c:147:1754
	sw	a0, 1384(a2)
	sw	a0, 1388(a2)
	sw	a0, 1392(a2)
	sw	a0, 1396(a2)
	.loc	2 147 1784                      # rnd_output0.c:147:1784
	sw	a7, 1400(a2)
	sw	a1, 1404(a2)
	sw	a0, 1408(a2)
	sw	a5, 1412(a2)
	.loc	2 147 1822                      # rnd_output0.c:147:1822
	sw	a0, 1416(a2)
	sw	a1, 1420(a2)
	sw	a3, 1424(a2)
	sw	a4, 1428(a2)
	.loc	2 147 1854                      # rnd_output0.c:147:1854
	sw	a4, 1432(a2)
	sw	a4, 1436(a2)
	sw	a3, 1440(a2)
	sw	a1, 1444(a2)
	.loc	2 147 1886                      # rnd_output0.c:147:1886
	sw	a3, 1448(a2)
	sw	a1, 1452(a2)
	sw	a7, 1456(a2)
	sw	a7, 1460(a2)
	.loc	2 147 1924                      # rnd_output0.c:147:1924
	sw	a7, 1464(a2)
	sw	a3, 1468(a2)
	sw	a1, 1472(a2)
	sw	a0, 1476(a2)
	.loc	2 147 1959                      # rnd_output0.c:147:1959
	sw	a3, 1480(a2)
	sw	a1, 1484(a2)
	sw	a6, 1488(a2)
	sw	a4, 1492(a2)
	.loc	2 147 1994                      # rnd_output0.c:147:1994
	sw	a0, 1496(a2)
	sw	a0, 1500(a2)
	sw	a3, 1504(a2)
	sw	a6, 1508(a2)
	.loc	2 147 2027                      # rnd_output0.c:147:2027
	sw	a5, 1512(a2)
	sw	a5, 1516(a2)
	sw	a4, 1520(a2)
	sw	a3, 1524(a2)
	.loc	2 147 2063                      # rnd_output0.c:147:2063
	sw	a0, 1528(a2)
	sw	a0, 1532(a2)
	sw	a0, 1536(a2)
	sw	a0, 1540(a2)
	.loc	2 147 794                       # rnd_output0.c:147:794
	lui	a0, 1
	addi	a0, a0, 892
	sub	a3, s0, a0
	.loc	2 148 41 is_stmt 1              # rnd_output0.c:148:41
	sw	a3, 512(a2)
	lui	a0, 1
	addi	a0, a0, 1316
	sub	a0, s0, a0
	sw	a1, 516(a2)
	sw	a3, 520(a2)
	sw	a1, 524(a2)
	sw	a3, 528(a2)
	sw	a1, 532(a2)
	.loc	2 147 44                        # rnd_output0.c:147:44
	lui	a4, 1
	addi	a4, a4, 1216
	sub	a4, s0, a4
	.loc	2 148 118                       # rnd_output0.c:148:118
	sw	a4, 536(a2)
	sw	a1, 540(a2)
	sw	a4, 544(a2)
	sw	a1, 548(a2)
	sw	a4, 552(a2)
	sw	a1, 556(a2)
	.loc	2 148 195 is_stmt 0             # rnd_output0.c:148:195
	sw	a3, 560(a2)
	sw	a1, 564(a2)
	sw	a3, 568(a2)
	sw	a1, 572(a2)
	sw	a3, 576(a2)
	sw	a1, 580(a2)
	.loc	2 149 27 is_stmt 1              # rnd_output0.c:149:27
	sw	a0, 508(a2)
	lui	a0, 5
	addi	a0, a0, 1793
	.loc	2 150 17                        # rnd_output0.c:150:17
	sh	a0, 504(a2)
	lui	a0, 357744
	addi	a0, a0, 343
	sw	a0, 500(a2)
	lui	a0, 1
	addi	a0, a0, 1380
	sub	a0, s0, a0
	li	a2, 48
	.loc	2 151 18                        # rnd_output0.c:151:18
	call	memset@plt
	lui	a1, 4
	sub	a1, s0, a1
	lw	a2, 696(a1)                     # 4-byte Folded Reload
	lui	a1, 4
	sub	a1, s0, a1
	lw	a1, 732(a1)                     # 4-byte Folded Reload
                                        # kill: def $x13 killed $x10
	lui	a0, 4
	sub	a0, s0, a0
	lw	a0, 700(a0)                     # 4-byte Folded Reload
	li	a3, -1
	sh	a3, 458(a1)
	sh	a3, 470(a1)
	sh	a3, 482(a1)
	sh	a3, 494(a1)
	.loc	2 152 18                        # rnd_output0.c:152:18
	sw	a2, 448(a1)
	li	a2, 236
	.loc	2 154 16                        # rnd_output0.c:154:16
	sb	a2, 411(a1)
.Ltmp38:
	.loc	2 156 16                        # rnd_output0.c:156:16
	sw	a0, 404(a1)
	.loc	2 156 14 is_stmt 0              # rnd_output0.c:156:14
	j	.LBB0_33
.LBB0_33:                               #   Parent Loop BB0_31 Depth=1
                                        # =>  This Inner Loop Header: Depth=2
.Ltmp39:
	.loc	2 156 21                        # rnd_output0.c:156:21
	lui	a0, 4
	sub	a0, s0, a0
	lw	a0, 732(a0)                     # 4-byte Folded Reload
	lw	a1, 404(a0)
	li	a0, 3
.Ltmp40:
	.loc	2 156 9                         # rnd_output0.c:156:9
	blt	a0, a1, .LBB0_36
	j	.LBB0_34
.LBB0_34:                               #   in Loop: Header=BB0_33 Depth=2
.Ltmp41:
	.loc	2 157 19 is_stmt 1              # rnd_output0.c:157:19
	lui	a0, 4
	sub	a0, s0, a0
	lw	a0, 732(a0)                     # 4-byte Folded Reload
	lw	a0, 404(a0)
	.loc	2 157 13 is_stmt 0              # rnd_output0.c:157:13
	slli	a1, a0, 3
	lui	a0, 1
	addi	a0, a0, 264
	sub	a0, s0, a0
	add	a1, a1, a0
	lui	a0, 6985
	addi	a0, a0, 1412
	.loc	2 157 22                        # rnd_output0.c:157:22
	sw	a0, 4(a1)
	lui	a0, 157586
	addi	a0, a0, -1618
	sw	a0, 0(a1)
	.loc	2 157 13                        # rnd_output0.c:157:13
	j	.LBB0_35
.LBB0_35:                               #   in Loop: Header=BB0_33 Depth=2
	.loc	2 156 29 is_stmt 1              # rnd_output0.c:156:29
	lui	a0, 4
	sub	a0, s0, a0
	lw	a1, 732(a0)                     # 4-byte Folded Reload
	lw	a0, 404(a1)
	addi	a0, a0, 1
	sw	a0, 404(a1)
	.loc	2 156 9 is_stmt 0               # rnd_output0.c:156:9
	j	.LBB0_33
.Ltmp42:
.LBB0_36:                               #   in Loop: Header=BB0_31 Depth=1
	.loc	2 0 9                           # rnd_output0.c:0:9
	lui	a0, 4
	sub	a0, s0, a0
	lw	a1, 732(a0)                     # 4-byte Folded Reload
	li	a0, 0
.Ltmp43:
	.loc	2 158 16 is_stmt 1              # rnd_output0.c:158:16
	sw	a0, 404(a1)
	.loc	2 158 14 is_stmt 0              # rnd_output0.c:158:14
	j	.LBB0_37
.LBB0_37:                               #   Parent Loop BB0_31 Depth=1
                                        # =>  This Inner Loop Header: Depth=2
.Ltmp44:
	.loc	2 158 21                        # rnd_output0.c:158:21
	lui	a0, 4
	sub	a0, s0, a0
	lw	a0, 732(a0)                     # 4-byte Folded Reload
	lw	a1, 404(a0)
	li	a0, 3
.Ltmp45:
	.loc	2 158 9                         # rnd_output0.c:158:9
	blt	a0, a1, .LBB0_40
	j	.LBB0_38
.LBB0_38:                               #   in Loop: Header=BB0_37 Depth=2
.Ltmp46:
	.loc	2 159 19 is_stmt 1              # rnd_output0.c:159:19
	lui	a0, 4
	sub	a0, s0, a0
	lw	a0, 732(a0)                     # 4-byte Folded Reload
	lw	a0, 404(a0)
	.loc	2 159 13 is_stmt 0              # rnd_output0.c:159:13
	slli	a1, a0, 2
	lui	a0, 1
	addi	a0, a0, 280
	sub	a0, s0, a0
	add	a1, a1, a0
	li	a0, 0
	.loc	2 159 22                        # rnd_output0.c:159:22
	sw	a0, 0(a1)
	.loc	2 159 13                        # rnd_output0.c:159:13
	j	.LBB0_39
.LBB0_39:                               #   in Loop: Header=BB0_37 Depth=2
	.loc	2 158 29 is_stmt 1              # rnd_output0.c:158:29
	lui	a0, 4
	sub	a0, s0, a0
	lw	a1, 732(a0)                     # 4-byte Folded Reload
	lw	a0, 404(a1)
	addi	a0, a0, 1
	sw	a0, 404(a1)
	.loc	2 158 9 is_stmt 0               # rnd_output0.c:158:9
	j	.LBB0_37
.Ltmp47:
.LBB0_40:                               #   in Loop: Header=BB0_31 Depth=1
	.loc	2 0 9                           # rnd_output0.c:0:9
	lui	a0, 4
	sub	a0, s0, a0
	lw	a1, 732(a0)                     # 4-byte Folded Reload
	li	a0, 0
.Ltmp48:
	.loc	2 160 16 is_stmt 1              # rnd_output0.c:160:16
	sw	a0, 404(a1)
	.loc	2 160 14 is_stmt 0              # rnd_output0.c:160:14
	j	.LBB0_41
.LBB0_41:                               #   Parent Loop BB0_31 Depth=1
                                        # =>  This Inner Loop Header: Depth=2
.Ltmp49:
	.loc	2 160 21                        # rnd_output0.c:160:21
	lui	a0, 4
	sub	a0, s0, a0
	lw	a0, 732(a0)                     # 4-byte Folded Reload
	lw	a1, 404(a0)
	li	a0, 8
.Ltmp50:
	.loc	2 160 9                         # rnd_output0.c:160:9
	blt	a0, a1, .LBB0_44
	j	.LBB0_42
.LBB0_42:                               #   in Loop: Header=BB0_41 Depth=2
.Ltmp51:
	.loc	2 161 20 is_stmt 1              # rnd_output0.c:161:20
	lui	a0, 4
	sub	a0, s0, a0
	lw	a0, 732(a0)                     # 4-byte Folded Reload
	lw	a0, 404(a0)
	.loc	2 161 13 is_stmt 0              # rnd_output0.c:161:13
	slli	a1, a0, 2
	lui	a0, 1
	addi	a0, a0, 1420
	sub	a0, s0, a0
	add	a1, a1, a0
	lui	a0, 396117
	addi	a0, a0, 2026
	.loc	2 161 23                        # rnd_output0.c:161:23
	sw	a0, 0(a1)
	.loc	2 161 13                        # rnd_output0.c:161:13
	j	.LBB0_43
.LBB0_43:                               #   in Loop: Header=BB0_41 Depth=2
	.loc	2 160 29 is_stmt 1              # rnd_output0.c:160:29
	lui	a0, 4
	sub	a0, s0, a0
	lw	a1, 732(a0)                     # 4-byte Folded Reload
	lw	a0, 404(a1)
	addi	a0, a0, 1
	sw	a0, 404(a1)
	.loc	2 160 9 is_stmt 0               # rnd_output0.c:160:9
	j	.LBB0_41
.Ltmp52:
.LBB0_44:                               #   in Loop: Header=BB0_31 Depth=1
	.loc	2 162 5 is_stmt 1               # rnd_output0.c:162:5
	j	.LBB0_45
.Ltmp53:
.LBB0_45:                               #   in Loop: Header=BB0_31 Depth=1
	.loc	2 137 41                        # rnd_output0.c:137:41
	lui	a1, %hi(g_642)
	lh	a0, %lo(g_642)(a1)
	addi	a0, a0, 1
	sh	a0, %lo(g_642)(a1)
	.loc	2 137 5 is_stmt 0               # rnd_output0.c:137:5
	j	.LBB0_31
.Ltmp54:
.LBB0_46:
	.loc	2 0 5                           # rnd_output0.c:0:5
	li	a0, 0
.Ltmp55:
	.loc	2 163 19 is_stmt 1              # rnd_output0.c:163:19
	sw	a0, -432(s0)
	.loc	2 163 10 is_stmt 0              # rnd_output0.c:163:10
	j	.LBB0_47
.LBB0_47:                               # =>This Loop Header: Depth=1
                                        #     Child Loop BB0_49 Depth 2
                                        #     Child Loop BB0_53 Depth 2
                                        #       Child Loop BB0_76 Depth 3
                                        #     Child Loop BB0_82 Depth 2
.Ltmp56:
	.loc	2 163 31                        # rnd_output0.c:163:31
	lw	a1, -432(s0)
	li	a0, 1
.Ltmp57:
	.loc	2 163 5                         # rnd_output0.c:163:5
	blt	a0, a1, .LBB0_87
	j	.LBB0_48
.LBB0_48:                               #   in Loop: Header=BB0_47 Depth=1
	.loc	2 0 5                           # rnd_output0.c:0:5
	lui	a0, 4
	sub	a0, s0, a0
	lw	a1, 732(a0)                     # 4-byte Folded Reload
	lui	a0, 813725
	addi	a0, a0, -1470
.Ltmp58:
	.loc	2 165 17 is_stmt 1              # rnd_output0.c:165:17
	sw	a0, 392(a1)
	.loc	2 166 17                        # rnd_output0.c:166:17
	lui	a0, %hi(.L__const.func_40.l_1053)
	addi	a1, a0, %lo(.L__const.func_40.l_1053)
	lui	a0, 1
	addi	a0, a0, 1504
	sub	a0, s0, a0
	li	a2, 64
	call	memcpy@plt
	lui	a0, 4
	sub	a0, s0, a0
	lw	a1, 732(a0)                     # 4-byte Folded Reload
	.loc	2 167 28                        # rnd_output0.c:167:28
	lui	a0, 1
	addi	a0, a0, 1460
	sub	a0, s0, a0
	.loc	2 167 18 is_stmt 0              # rnd_output0.c:167:18
	sw	a0, 324(a1)
	li	a0, 92
	.loc	2 168 23 is_stmt 1              # rnd_output0.c:168:23
	sb	a0, 323(a1)
	lui	a0, 539092
	addi	a0, a0, 184
	.loc	2 169 18                        # rnd_output0.c:169:18
	sw	a0, 316(a1)
	lui	a0, 938318
	addi	a0, a0, -1587
	sw	a0, 312(a1)
	.loc	2 171 39                        # rnd_output0.c:171:39
	lui	a0, 1
	addi	a0, a0, 1524
	sub	a0, s0, a0
	.loc	2 171 29 is_stmt 0              # rnd_output0.c:171:29
	sw	a0, 276(a1)
	li	a0, 0
.Ltmp59:
	.loc	2 173 16 is_stmt 1              # rnd_output0.c:173:16
	sw	a0, 272(a1)
	.loc	2 173 14 is_stmt 0              # rnd_output0.c:173:14
	j	.LBB0_49
.LBB0_49:                               #   Parent Loop BB0_47 Depth=1
                                        # =>  This Inner Loop Header: Depth=2
.Ltmp60:
	.loc	2 173 21                        # rnd_output0.c:173:21
	lui	a0, 4
	sub	a0, s0, a0
	lw	a0, 732(a0)                     # 4-byte Folded Reload
	lw	a1, 272(a0)
	li	a0, 7
.Ltmp61:
	.loc	2 173 9                         # rnd_output0.c:173:9
	blt	a0, a1, .LBB0_52
	j	.LBB0_50
.LBB0_50:                               #   in Loop: Header=BB0_49 Depth=2
.Ltmp62:
	.loc	2 174 20 is_stmt 1              # rnd_output0.c:174:20
	lui	a0, 4
	sub	a0, s0, a0
	lw	a0, 732(a0)                     # 4-byte Folded Reload
	lw	a0, 272(a0)
	.loc	2 174 13 is_stmt 0              # rnd_output0.c:174:13
	slli	a1, a0, 2
	lui	a0, 1
	addi	a0, a0, 1552
	sub	a0, s0, a0
	add	a1, a1, a0
	li	a0, 0
	.loc	2 174 23                        # rnd_output0.c:174:23
	sw	a0, 0(a1)
	.loc	2 174 13                        # rnd_output0.c:174:13
	j	.LBB0_51
.LBB0_51:                               #   in Loop: Header=BB0_49 Depth=2
	.loc	2 173 29 is_stmt 1              # rnd_output0.c:173:29
	lui	a0, 4
	sub	a0, s0, a0
	lw	a1, 732(a0)                     # 4-byte Folded Reload
	lw	a0, 272(a1)
	addi	a0, a0, 1
	sw	a0, 272(a1)
	.loc	2 173 9 is_stmt 0               # rnd_output0.c:173:9
	j	.LBB0_49
.Ltmp63:
.LBB0_52:                               #   in Loop: Header=BB0_47 Depth=1
	.loc	2 175 20 is_stmt 1              # rnd_output0.c:175:20
	lui	a1, %hi(g_589)
	li	a0, 1
	sw	a0, %lo(g_589)(a1)
	.loc	2 175 14 is_stmt 0              # rnd_output0.c:175:14
	j	.LBB0_53
.LBB0_53:                               #   Parent Loop BB0_47 Depth=1
                                        # =>  This Loop Header: Depth=2
                                        #       Child Loop BB0_76 Depth 3
.Ltmp64:
	.loc	2 175 26                        # rnd_output0.c:175:26
	lui	a0, %hi(g_589)
	lw	a0, %lo(g_589)(a0)
.Ltmp65:
	.loc	2 175 9                         # rnd_output0.c:175:9
	bltz	a0, .LBB0_81
	j	.LBB0_54
.LBB0_54:                               #   in Loop: Header=BB0_53 Depth=2
	.loc	2 0 9                           # rnd_output0.c:0:9
	lui	a0, 4
	sub	a0, s0, a0
	lw	a0, 732(a0)                     # 4-byte Folded Reload
	li	a1, -3
.Ltmp66:
	.loc	2 177 21 is_stmt 1              # rnd_output0.c:177:21
	sh	a1, 266(a0)
	li	a1, 0
	.loc	2 178 23                        # rnd_output0.c:178:23
	sw	a1, 260(a0)
	lui	a1, 618296
	addi	a1, a1, 1377
	.loc	2 179 21                        # rnd_output0.c:179:21
	sw	a1, 256(a0)
	li	a1, 1
	.loc	2 180 21                        # rnd_output0.c:180:21
	sw	a1, 252(a0)
	lui	a1, 48142
	addi	a1, a1, -154
	.loc	2 181 21                        # rnd_output0.c:181:21
	sw	a1, 248(a0)
	sw	a1, 244(a0)
	sw	a1, 240(a0)
	sw	a1, 236(a0)
	sw	a1, 232(a0)
	sw	a1, 228(a0)
.Ltmp67:
	.loc	2 183 25                        # rnd_output0.c:183:25
	lw	a0, 392(a0)
.Ltmp68:
	.loc	2 183 17 is_stmt 0              # rnd_output0.c:183:17
	beqz	a0, .LBB0_67
	j	.LBB0_55
.LBB0_55:                               #   in Loop: Header=BB0_53 Depth=2
	.loc	2 0 17                          # rnd_output0.c:0:17
	lui	a0, 4
	sub	a0, s0, a0
	lw	a1, 732(a0)                     # 4-byte Folded Reload
	lui	a0, 7
	addi	a0, a0, -2041
.Ltmp69:
	.loc	2 185 26 is_stmt 1              # rnd_output0.c:185:26
	sh	a0, 222(a1)
	.loc	2 186 42                        # rnd_output0.c:186:42
	addi	a0, s0, -960
	.loc	2 186 32 is_stmt 0              # rnd_output0.c:186:32
	sw	a0, 216(a1)
.Ltmp70:
	.loc	2 187 31 is_stmt 1              # rnd_output0.c:187:31
	lui	a1, %hi(g_733)
	li	a0, 0
	sw	a0, %lo(g_733)(a1)
	.loc	2 187 22 is_stmt 0              # rnd_output0.c:187:22
	j	.LBB0_56
.LBB0_56:                               #   in Loop: Header=BB0_53 Depth=2
.Ltmp71:
	.loc	2 187 43                        # rnd_output0.c:187:43
	lui	a0, %hi(g_733)
	lw	a1, %lo(g_733)(a0)
	li	a0, 1
.Ltmp72:
	.loc	2 187 17                        # rnd_output0.c:187:17
	bltu	a0, a1, .LBB0_66
	j	.LBB0_57
.LBB0_57:
	.loc	2 0 17                          # rnd_output0.c:0:17
	lui	a0, 4
	sub	a0, s0, a0
	lw	a2, 732(a0)                     # 4-byte Folded Reload
	lui	a0, 187910
	addi	a0, a0, 1273
.Ltmp73:
	.loc	2 189 30 is_stmt 1              # rnd_output0.c:189:30
	sw	a0, 212(a2)
	lui	a0, 498384
	addi	a0, a0, 1841
	sw	a0, 208(a2)
	li	a0, 0
	.loc	2 190 29                        # rnd_output0.c:190:29
	sw	a0, 204(a2)
	lui	a1, 1
	addi	a1, a1, 1440
	sub	a1, s0, a1
	.loc	2 191 36                        # rnd_output0.c:191:36
	sw	a1, 200(a2)
.Ltmp74:
	.loc	2 192 32                        # rnd_output0.c:192:32
	lui	a1, %hi(g_302)
	sw	a0, %lo(g_302)(a1)
	.loc	2 192 26 is_stmt 0              # rnd_output0.c:192:26
	j	.LBB0_58
.LBB0_58:                               # =>This Inner Loop Header: Depth=1
.Ltmp75:
	.loc	2 192 38                        # rnd_output0.c:192:38
	lui	a0, %hi(g_302)
	lw	a1, %lo(g_302)(a0)
	li	a0, 3
.Ltmp76:
	.loc	2 192 21                        # rnd_output0.c:192:21
	bltu	a0, a1, .LBB0_65
	j	.LBB0_59
.LBB0_59:                               #   in Loop: Header=BB0_58 Depth=1
	.loc	2 0 21                          # rnd_output0.c:0:21
	lui	a0, 4
	sub	a0, s0, a0
	lw	a1, 732(a0)                     # 4-byte Folded Reload
	li	a0, 0
.Ltmp77:
	.loc	2 194 33 is_stmt 1              # rnd_output0.c:194:33
	sw	a0, 196(a1)
	.loc	2 196 31                        # rnd_output0.c:196:31
	lw	a0, 212(a1)
	lw	a2, 208(a1)
	seqz	a3, a2
	sub	a0, a0, a3
	addi	a2, a2, -1
	sw	a2, 208(a1)
	sw	a0, 212(a1)
.Ltmp78:
	.loc	2 197 42                        # rnd_output0.c:197:42
	lui	a0, %hi(g_733)
	lw	a0, %lo(g_733)(a0)
	.loc	2 197 45 is_stmt 0              # rnd_output0.c:197:45
	slli	a0, a0, 3
	.loc	2 197 29                        # rnd_output0.c:197:29
	lui	a1, %hi(g_947)
	addi	a1, a1, %lo(g_947)
	add	a0, a0, a1
	.loc	2 197 51                        # rnd_output0.c:197:51
	lui	a1, %hi(g_302)
	lw	a1, %lo(g_302)(a1)
	.loc	2 197 29                        # rnd_output0.c:197:29
	slli	a1, a1, 1
	add	a0, a0, a1
	lhu	a0, 16(a0)
.Ltmp79:
	.loc	2 197 29                        # rnd_output0.c:197:29
	beqz	a0, .LBB0_61
	j	.LBB0_60
.LBB0_60:
.Ltmp80:
	.loc	2 198 29 is_stmt 1              # rnd_output0.c:198:29
	j	.LBB0_65
.Ltmp81:
.LBB0_61:                               #   in Loop: Header=BB0_58 Depth=1
	.loc	2 199 41                        # rnd_output0.c:199:41
	lui	a0, 4
	sub	a0, s0, a0
	lw	a1, 732(a0)                     # 4-byte Folded Reload
	lui	a0, %hi(g_589)
	lw	a0, %lo(g_589)(a0)
	.loc	2 199 47 is_stmt 0              # rnd_output0.c:199:47
	addi	a2, a0, 1
	.loc	2 199 34                        # rnd_output0.c:199:34
	lui	a0, %hi(g_947)
	addi	a0, a0, %lo(g_947)
	slli	a3, a2, 3
	add	a0, a0, a3
	slli	a2, a2, 1
	add	a0, a0, a2
	lhu	a0, 0(a0)
	.loc	2 199 32                        # rnd_output0.c:199:32
	sw	a0, 196(a1)
.Ltmp82:
	.loc	2 200 31 is_stmt 1              # rnd_output0.c:200:31
	lw	a0, -24(s0)
	.loc	2 200 30 is_stmt 0              # rnd_output0.c:200:30
	lw	a0, 0(a0)
.Ltmp83:
	.loc	2 200 29                        # rnd_output0.c:200:29
	beqz	a0, .LBB0_63
	j	.LBB0_62
.LBB0_62:                               #   in Loop: Header=BB0_58 Depth=1
.Ltmp84:
	.loc	2 201 29 is_stmt 1              # rnd_output0.c:201:29
	j	.LBB0_64
.Ltmp85:
.LBB0_63:                               #   in Loop: Header=BB0_58 Depth=1
	.loc	2 202 21                        # rnd_output0.c:202:21
	j	.LBB0_64
.Ltmp86:
.LBB0_64:                               #   in Loop: Header=BB0_58 Depth=1
	.loc	2 192 57                        # rnd_output0.c:192:57
	lui	a1, %hi(g_302)
	lw	a0, %lo(g_302)(a1)
	addi	a0, a0, 1
	sw	a0, %lo(g_302)(a1)
	.loc	2 192 21 is_stmt 0              # rnd_output0.c:192:21
	j	.LBB0_58
.Ltmp87:
.LBB0_65:
	.loc	2 203 21 is_stmt 1              # rnd_output0.c:203:21
	lui	a0, 4
	sub	a0, s0, a0
	lw	a1, 732(a0)                     # 4-byte Folded Reload
	lh	a0, 222(a1)
	addi	a0, a0, -1
	sh	a0, 222(a1)
	.loc	2 204 30                        # rnd_output0.c:204:30
	lw	a0, -64(s0)
	.loc	2 204 29 is_stmt 0              # rnd_output0.c:204:29
	lw	a0, 0(a0)
	.loc	2 204 21                        # rnd_output0.c:204:21
	sw	a0, -20(s0)
	j	.LBB0_254
.Ltmp88:
.LBB0_66:                               #   in Loop: Header=BB0_53 Depth=2
	.loc	2 206 28 is_stmt 1              # rnd_output0.c:206:28
	lui	a0, 4
	sub	a0, s0, a0
	lw	a0, 732(a0)                     # 4-byte Folded Reload
	lw	a0, 260(a0)
	.loc	2 206 19 is_stmt 0              # rnd_output0.c:206:19
	lw	a1, -652(s0)
	.loc	2 206 26                        # rnd_output0.c:206:26
	sw	a0, 0(a1)
	.loc	2 207 13 is_stmt 1              # rnd_output0.c:207:13
	j	.LBB0_75
.Ltmp89:
.LBB0_67:                               #   in Loop: Header=BB0_53 Depth=2
	.loc	2 210 32                        # rnd_output0.c:210:32
	lui	a0, 4
	sub	a0, s0, a0
	lw	a1, 732(a0)                     # 4-byte Folded Reload
	lui	a0, %hi(g_8)
	addi	a0, a0, %lo(g_8)
	addi	a0, a0, 480
	sw	a0, 184(a1)
	li	a0, -1
	.loc	2 211 25                        # rnd_output0.c:211:25
	sw	a0, 180(a1)
	.loc	2 212 26                        # rnd_output0.c:212:26
	sw	a0, 176(a1)
.Ltmp90:
	.loc	2 213 23                        # rnd_output0.c:213:23
	lw	a0, -24(s0)
	.loc	2 213 22 is_stmt 0              # rnd_output0.c:213:22
	lw	a0, 0(a0)
.Ltmp91:
	.loc	2 213 21                        # rnd_output0.c:213:21
	beqz	a0, .LBB0_71
	j	.LBB0_68
.LBB0_68:                               #   in Loop: Header=BB0_53 Depth=2
	.loc	2 0 21                          # rnd_output0.c:0:21
	lui	a0, 4
	sub	a0, s0, a0
	lw	a0, 756(a0)                     # 4-byte Folded Reload
	lui	a1, 4
	sub	a1, s0, a1
	lw	a2, 732(a1)                     # 4-byte Folded Reload
	lui	a1, 214186
	addi	a1, a1, -679
.Ltmp92:
	.loc	2 215 30 is_stmt 1              # rnd_output0.c:215:30
	sw	a1, 172(a2)
	.loc	2 216 32                        # rnd_output0.c:216:32
	lw	a1, -24(s0)
	.loc	2 216 31 is_stmt 0              # rnd_output0.c:216:31
	lw	a1, 0(a1)
	.loc	2 216 28                        # rnd_output0.c:216:28
	sw	a1, 392(a2)
	.loc	2 217 27 is_stmt 1              # rnd_output0.c:217:27
	lw	a1, 172(a2)
	addi	a1, a1, 1
	sw	a1, 172(a2)
.Ltmp93:
	.loc	2 218 25                        # rnd_output0.c:218:25
	lw	a1, 608(a0)
	lw	a0, 604(a0)
	or	a0, a0, a1
.Ltmp94:
	.loc	2 218 25 is_stmt 0              # rnd_output0.c:218:25
	beqz	a0, .LBB0_70
	j	.LBB0_69
.LBB0_69:                               #   in Loop: Header=BB0_53 Depth=2
.Ltmp95:
	.loc	2 219 25 is_stmt 1              # rnd_output0.c:219:25
	j	.LBB0_80
.Ltmp96:
.LBB0_70:                               #   in Loop: Header=BB0_53 Depth=2
	.loc	2 220 34                        # rnd_output0.c:220:34
	lui	a0, %hi(g_334)
	lw	a0, %lo(g_334)(a0)
	.loc	2 220 33 is_stmt 0              # rnd_output0.c:220:33
	lw	a0, 0(a0)
	.loc	2 220 23                        # rnd_output0.c:220:23
	lui	a1, %hi(g_200)
	lw	a1, %lo(g_200)(a1)
	.loc	2 220 30                        # rnd_output0.c:220:30
	sw	a0, 0(a1)
	.loc	2 221 17 is_stmt 1              # rnd_output0.c:221:17
	j	.LBB0_74
.Ltmp97:
.LBB0_71:
	.loc	2 224 29                        # rnd_output0.c:224:29
	lui	a0, %hi(.L__const.func_40.l_1060)
	addi	a1, a0, %lo(.L__const.func_40.l_1060)
	lui	a0, 1
	addi	a0, a0, 1696
	sub	a0, s0, a0
	li	a2, 36
	call	memcpy@plt
                                        # kill: def $x11 killed $x10
.Ltmp98:
	.loc	2 226 56                        # rnd_output0.c:226:56
	lui	a0, 4
	sub	a0, s0, a0
	lw	a0, 732(a0)                     # 4-byte Folded Reload
	lw	a0, 144(a0)
	srai	a1, a0, 31
	li	a2, 6
	.loc	2 226 26 is_stmt 0              # rnd_output0.c:226:26
	call	safe_lshift_func_uint64_t_u_s
	or	a0, a0, a1
.Ltmp99:
	.loc	2 226 25                        # rnd_output0.c:226:25
	beqz	a0, .LBB0_73
	j	.LBB0_72
.LBB0_72:
.Ltmp100:
	.loc	2 228 32 is_stmt 1              # rnd_output0.c:228:32
	lui	a0, 4
	sub	a0, s0, a0
	lw	a0, 732(a0)                     # 4-byte Folded Reload
	lw	a0, 184(a0)
	.loc	2 228 25 is_stmt 0              # rnd_output0.c:228:25
	sw	a0, -20(s0)
	j	.LBB0_254
.Ltmp101:
.LBB0_73:
	.loc	2 232 32 is_stmt 1              # rnd_output0.c:232:32
	lui	a0, 4
	sub	a0, s0, a0
	lw	a0, 756(a0)                     # 4-byte Folded Reload
	lw	a0, 600(a0)
	.loc	2 232 25 is_stmt 0              # rnd_output0.c:232:25
	sw	a0, -20(s0)
	j	.LBB0_254
.Ltmp102:
.LBB0_74:                               #   in Loop: Header=BB0_53 Depth=2
	.loc	2 235 24 is_stmt 1              # rnd_output0.c:235:24
	lui	a0, 4
	sub	a0, s0, a0
	lw	a1, 732(a0)                     # 4-byte Folded Reload
	lw	a0, 180(a1)
	ori	a0, a0, 9
	sw	a0, 180(a1)
	.loc	2 236 23                        # rnd_output0.c:236:23
	lw	a0, 176(a1)
	addi	a0, a0, 1
	sw	a0, 176(a1)
	j	.LBB0_75
.Ltmp103:
.LBB0_75:                               #   in Loop: Header=BB0_53 Depth=2
	.loc	2 238 24                        # rnd_output0.c:238:24
	lui	a1, %hi(g_116)
	li	a0, 1
	sw	a0, %lo(g_116)(a1)
	.loc	2 238 18 is_stmt 0              # rnd_output0.c:238:18
	j	.LBB0_76
.LBB0_76:                               #   Parent Loop BB0_47 Depth=1
                                        #     Parent Loop BB0_53 Depth=2
                                        # =>    This Inner Loop Header: Depth=3
.Ltmp104:
	.loc	2 238 30                        # rnd_output0.c:238:30
	lui	a0, %hi(g_116)
	lw	a0, %lo(g_116)(a0)
.Ltmp105:
	.loc	2 238 13                        # rnd_output0.c:238:13
	bltz	a0, .LBB0_79
	j	.LBB0_77
.LBB0_77:                               #   in Loop: Header=BB0_76 Depth=3
.Ltmp106:
	.loc	2 240 28 is_stmt 1              # rnd_output0.c:240:28
	lui	a0, 4
	sub	a0, s0, a0
	lw	a1, 732(a0)                     # 4-byte Folded Reload
	lw	a0, -64(s0)
	.loc	2 240 27 is_stmt 0              # rnd_output0.c:240:27
	lw	a0, 0(a0)
	.loc	2 240 24                        # rnd_output0.c:240:24
	sw	a0, 324(a1)
	.loc	2 241 13 is_stmt 1              # rnd_output0.c:241:13
	j	.LBB0_78
.Ltmp107:
.LBB0_78:                               #   in Loop: Header=BB0_76 Depth=3
	.loc	2 238 49                        # rnd_output0.c:238:49
	lui	a1, %hi(g_116)
	lw	a0, %lo(g_116)(a1)
	addi	a0, a0, -1
	sw	a0, %lo(g_116)(a1)
	.loc	2 238 13 is_stmt 0              # rnd_output0.c:238:13
	j	.LBB0_76
.Ltmp108:
.LBB0_79:                               #   in Loop: Header=BB0_53 Depth=2
	.loc	2 242 9 is_stmt 1               # rnd_output0.c:242:9
	j	.LBB0_80
.Ltmp109:
.LBB0_80:                               #   in Loop: Header=BB0_53 Depth=2
	.loc	2 175 45                        # rnd_output0.c:175:45
	lui	a1, %hi(g_589)
	lw	a0, %lo(g_589)(a1)
	addi	a0, a0, -1
	sw	a0, %lo(g_589)(a1)
	.loc	2 175 9 is_stmt 0               # rnd_output0.c:175:9
	j	.LBB0_53
.Ltmp110:
.LBB0_81:                               #   in Loop: Header=BB0_47 Depth=1
	.loc	2 243 19 is_stmt 1              # rnd_output0.c:243:19
	lui	a1, %hi(g_89)
	li	a0, 0
	sh	a0, %lo(g_89)(a1)
	.loc	2 243 14 is_stmt 0              # rnd_output0.c:243:14
	j	.LBB0_82
.LBB0_82:                               #   Parent Loop BB0_47 Depth=1
                                        # =>  This Inner Loop Header: Depth=2
.Ltmp111:
	.loc	2 243 25                        # rnd_output0.c:243:25
	lui	a0, %hi(g_89)
	lhu	a1, %lo(g_89)(a0)
	li	a0, 1
.Ltmp112:
	.loc	2 243 9                         # rnd_output0.c:243:9
	blt	a0, a1, .LBB0_85
	j	.LBB0_83
.LBB0_83:                               #   in Loop: Header=BB0_82 Depth=2
.Ltmp113:
	.loc	2 245 22 is_stmt 1              # rnd_output0.c:245:22
	lui	a0, 4
	sub	a0, s0, a0
	lw	a1, 732(a0)                     # 4-byte Folded Reload
	lui	a0, %hi(g_588)
	addi	a0, a0, %lo(g_588)
	sw	a0, 128(a1)
	.loc	2 246 29                        # rnd_output0.c:246:29
	lui	a0, %hi(g_294)
	addi	a0, a0, %lo(g_294)
	sw	a0, 124(a1)
	li	a0, -9
	.loc	2 247 21                        # rnd_output0.c:247:21
	sw	a0, 120(a1)
	li	a0, 0
	.loc	2 248 22                        # rnd_output0.c:248:22
	sw	a0, 116(a1)
	sw	a0, 112(a1)
	li	a0, -1
	sw	a0, 108(a1)
	lui	a0, 466551
	addi	a0, a0, -1237
	sw	a0, 104(a1)
	.loc	2 250 9                         # rnd_output0.c:250:9
	j	.LBB0_84
.Ltmp114:
.LBB0_84:                               #   in Loop: Header=BB0_82 Depth=2
	.loc	2 243 42                        # rnd_output0.c:243:42
	lui	a1, %hi(g_89)
	lh	a0, %lo(g_89)(a1)
	addi	a0, a0, 1
	sh	a0, %lo(g_89)(a1)
	.loc	2 243 9 is_stmt 0               # rnd_output0.c:243:9
	j	.LBB0_82
.Ltmp115:
.LBB0_85:                               #   in Loop: Header=BB0_47 Depth=1
	.loc	2 251 5 is_stmt 1               # rnd_output0.c:251:5
	j	.LBB0_86
.Ltmp116:
.LBB0_86:                               #   in Loop: Header=BB0_47 Depth=1
	.loc	2 163 50                        # rnd_output0.c:163:50
	lw	a0, -432(s0)
	addi	a0, a0, 1
	sw	a0, -432(s0)
	.loc	2 163 5 is_stmt 0               # rnd_output0.c:163:5
	j	.LBB0_47
.Ltmp117:
.LBB0_87:
	.loc	2 252 54 is_stmt 1              # rnd_output0.c:252:54
	lui	a0, 4
	sub	a0, s0, a0
	lw	a0, 756(a0)                     # 4-byte Folded Reload
	lw	a0, 596(a0)
	.loc	2 252 65 is_stmt 0              # rnd_output0.c:252:65
	lui	a1, %hi(g_1124)
	addi	a1, a1, %lo(g_1124)
	lw	a1, 100(a1)
	li	a2, 0
	.loc	2 252 82                        # rnd_output0.c:252:82
	lui	a3, 4
	sub	a3, s0, a3
	sw	a2, 660(a3)                     # 4-byte Folded Spill
	beq	a0, a1, .LBB0_89
	j	.LBB0_88
.LBB0_88:
	.loc	2 252 85                        # rnd_output0.c:252:85
	lui	a0, %hi(g_117)
	lw	a0, %lo(g_117)(a0)
	.loc	2 252 82                        # rnd_output0.c:252:82
	snez	a0, a0
	lui	a1, 4
	sub	a1, s0, a1
	sw	a0, 660(a1)                     # 4-byte Folded Spill
	j	.LBB0_89
.LBB0_89:
	.loc	2 0 0                           # rnd_output0.c:0:0
	lui	a0, 4
	sub	a0, s0, a0
	lw	a0, 660(a0)                     # 4-byte Folded Reload
	.loc	2 252 82                        # rnd_output0.c:252:82
	andi	a0, a0, 1
	.loc	2 252 124                       # rnd_output0.c:252:124
	lui	a1, 4
	sub	a1, s0, a1
	sw	a0, 656(a1)                     # 4-byte Folded Spill
	li	a0, -3
	li	a1, 31
	call	safe_rshift_func_uint32_t_u_u
	.loc	2 252 95                        # rnd_output0.c:252:95
	slli	a0, a0, 24
	srai	a0, a0, 24
	li	a1, 6
	call	safe_rshift_func_int8_t_s_u
	mv	a1, a0
	.loc	2 252 92                        # rnd_output0.c:252:92
	lui	a0, 4
	sub	a0, s0, a0
	lw	a0, 656(a0)                     # 4-byte Folded Reload
	slt	a0, a0, a1
	xori	a0, a0, 1
	li	a1, 2
	.loc	2 252 10                        # rnd_output0.c:252:10
	call	safe_lshift_func_uint8_t_u_u
.Ltmp118:
	.loc	2 252 9                         # rnd_output0.c:252:9
	bnez	a0, .LBB0_90
	j	.LBB0_248
.LBB0_90:
.Ltmp119:
	.loc	2 254 43 is_stmt 1              # rnd_output0.c:254:43
	lui	a0, 4
	sub	a0, s0, a0
	lw	a1, 736(a0)                     # 4-byte Folded Reload
	lui	a0, 4
	sub	a0, s0, a0
	lw	a3, 732(a0)                     # 4-byte Folded Reload
	addi	a4, s0, -304
	.loc	2 254 41 is_stmt 0              # rnd_output0.c:254:41
	lui	a0, 4
	sub	a0, s0, a0
	sw	a4, 644(a0)                     # 4-byte Folded Spill
	sw	a4, 1572(a1)
	sw	a4, 1576(a1)
	addi	a2, s0, -60
	lui	a0, 4
	sub	a0, s0, a0
	sw	a2, 648(a0)                     # 4-byte Folded Spill
	sw	a2, 1580(a1)
	sw	a4, 1584(a1)
	.loc	2 254 98                        # rnd_output0.c:254:98
	sw	a4, 1588(a1)
	li	a0, 0
	lui	a5, 4
	sub	a5, s0, a5
	sw	a0, 652(a5)                     # 4-byte Folded Spill
	sw	a0, 1592(a1)
	sw	a0, 1596(a1)
	sw	a4, 1600(a1)
	.loc	2 254 150                       # rnd_output0.c:254:150
	sw	a0, 1604(a1)
	sw	a4, 1608(a1)
	sw	a0, 1612(a1)
	sw	a0, 1616(a1)
	.loc	2 254 195                       # rnd_output0.c:254:195
	sw	a4, 1620(a1)
	sw	a4, 1624(a1)
	sw	a2, 1628(a1)
	sw	a4, 1632(a1)
	.loc	2 254 252                       # rnd_output0.c:254:252
	sw	a4, 1636(a1)
	sw	a0, 1640(a1)
	sw	a0, 1644(a1)
	sw	a4, 1648(a1)
	.loc	2 254 304                       # rnd_output0.c:254:304
	sw	a0, 1652(a1)
	sw	a4, 1656(a1)
	sw	a0, 1660(a1)
	sw	a0, 1664(a1)
	.loc	2 254 349                       # rnd_output0.c:254:349
	sw	a4, 1668(a1)
	sw	a4, 1672(a1)
	sw	a2, 1676(a1)
	sw	a4, 1680(a1)
	.loc	2 254 406                       # rnd_output0.c:254:406
	sw	a4, 1684(a1)
	sw	a0, 1688(a1)
	sw	a0, 1692(a1)
	sw	a4, 1696(a1)
	.loc	2 254 458                       # rnd_output0.c:254:458
	sw	a0, 1700(a1)
	sw	a4, 1704(a1)
	sw	a0, 1708(a1)
	sw	a0, 1712(a1)
	.loc	2 254 505                       # rnd_output0.c:254:505
	sw	a4, 1716(a1)
	sw	a4, 1720(a1)
	sw	a2, 1724(a1)
	sw	a4, 1728(a1)
	.loc	2 254 562                       # rnd_output0.c:254:562
	sw	a4, 1732(a1)
	sw	a0, 1736(a1)
	sw	a0, 1740(a1)
	sw	a4, 1744(a1)
	.loc	2 254 614                       # rnd_output0.c:254:614
	sw	a0, 1748(a1)
	sw	a4, 1752(a1)
	sw	a0, 1756(a1)
	sw	a0, 1760(a1)
	.loc	2 254 659                       # rnd_output0.c:254:659
	sw	a4, 1764(a1)
	sw	a4, 1768(a1)
	sw	a2, 1772(a1)
	sw	a4, 1776(a1)
	.loc	2 254 716                       # rnd_output0.c:254:716
	sw	a4, 1780(a1)
	sw	a0, 1784(a1)
	sw	a0, 1788(a1)
	sw	a4, 1792(a1)
	.loc	2 254 768                       # rnd_output0.c:254:768
	sw	a0, 1796(a1)
	sw	a4, 1800(a1)
	sw	a0, 1804(a1)
	sw	a0, 1808(a1)
	.loc	2 254 813                       # rnd_output0.c:254:813
	sw	a4, 1812(a1)
	sw	a4, 1816(a1)
	sw	a2, 1820(a1)
	sw	a4, 1824(a1)
	.loc	2 254 870                       # rnd_output0.c:254:870
	sw	a4, 1828(a1)
	sw	a0, 1832(a1)
	sw	a0, 1836(a1)
	sw	a4, 1840(a1)
	.loc	2 254 922                       # rnd_output0.c:254:922
	sw	a0, 1844(a1)
	sw	a4, 1848(a1)
	sw	a0, 1852(a1)
	sw	a0, 1856(a1)
	.loc	2 254 969                       # rnd_output0.c:254:969
	sw	a4, 1860(a1)
	sw	a4, 1864(a1)
	sw	a2, 1868(a1)
	sw	a4, 1872(a1)
	.loc	2 254 1026                      # rnd_output0.c:254:1026
	sw	a4, 1876(a1)
	sw	a0, 1880(a1)
	sw	a0, 1884(a1)
	sw	a4, 1888(a1)
	.loc	2 254 1078                      # rnd_output0.c:254:1078
	sw	a0, 1892(a1)
	sw	a4, 1896(a1)
	sw	a0, 1900(a1)
	sw	a0, 1904(a1)
	.loc	2 254 1123                      # rnd_output0.c:254:1123
	sw	a4, 1908(a1)
	sw	a4, 1912(a1)
	sw	a2, 1916(a1)
	sw	a4, 1920(a1)
	.loc	2 254 1180                      # rnd_output0.c:254:1180
	sw	a4, 1924(a1)
	sw	a0, 1928(a1)
	sw	a0, 1932(a1)
	sw	a0, 1936(a1)
	.loc	2 254 1225                      # rnd_output0.c:254:1225
	sw	a2, 1940(a1)
	sw	a0, 1944(a1)
	sw	a2, 1948(a1)
	sw	a2, 1952(a1)
	.loc	2 254 1257                      # rnd_output0.c:254:1257
	sw	a0, 1956(a1)
	sw	a0, 1960(a1)
	sw	a4, 1964(a1)
	sw	a0, 1968(a1)
	.loc	2 254 1302                      # rnd_output0.c:254:1302
	sw	a0, 1972(a1)
	sw	a2, 1976(a1)
	sw	a2, 1980(a1)
	sw	a0, 1984(a1)
	.loc	2 254 1336                      # rnd_output0.c:254:1336
	sw	a2, 1988(a1)
	sw	a0, 1992(a1)
	sw	a2, 1996(a1)
	sw	a2, 2000(a1)
	.loc	2 254 1370                      # rnd_output0.c:254:1370
	sw	a0, 2004(a1)
	sw	a0, 2008(a1)
	sw	a4, 2012(a1)
	sw	a0, 2016(a1)
	.loc	2 254 1415                      # rnd_output0.c:254:1415
	sw	a0, 2020(a1)
	sw	a2, 2024(a1)
	sw	a2, 2028(a1)
	sw	a0, 2032(a1)
	.loc	2 254 1449                      # rnd_output0.c:254:1449
	sw	a2, 2036(a1)
	sw	a0, 2040(a1)
	sw	a2, 2044(a1)
	sw	a2, 0(a3)
	.loc	2 254 1481                      # rnd_output0.c:254:1481
	sw	a0, 4(a3)
	sw	a0, 8(a3)
	sw	a4, 12(a3)
	sw	a0, 16(a3)
	.loc	2 254 1526                      # rnd_output0.c:254:1526
	sw	a0, 20(a3)
	sw	a2, 24(a3)
	sw	a2, 28(a3)
	sw	a0, 32(a3)
	.loc	2 254 1560                      # rnd_output0.c:254:1560
	sw	a2, 36(a3)
	sw	a0, 40(a3)
	sw	a2, 44(a3)
	sw	a2, 48(a3)
	.loc	2 254 1592                      # rnd_output0.c:254:1592
	sw	a0, 52(a3)
	sw	a0, 56(a3)
	sw	a4, 60(a3)
	sw	a0, 64(a3)
	.loc	2 254 1637                      # rnd_output0.c:254:1637
	sw	a0, 68(a3)
	sw	a2, 72(a3)
	sw	a2, 76(a3)
	sw	a0, 80(a3)
	.loc	2 254 1671                      # rnd_output0.c:254:1671
	sw	a2, 84(a3)
	sw	a0, 88(a3)
	sw	a2, 92(a3)
	sw	a2, 96(a3)
	.loc	2 255 34 is_stmt 1              # rnd_output0.c:255:34
	sw	a0, 1568(a1)
	lui	a2, 2
	addi	a2, a2, -1784
	sub	a2, s0, a2
	.loc	2 256 35                        # rnd_output0.c:256:35
	sw	a2, 1564(a1)
	lui	a2, 2
	addi	a2, a2, -1780
	sub	a2, s0, a2
	.loc	2 257 36                        # rnd_output0.c:257:36
	sw	a2, 1560(a1)
	lui	a2, 546026
	addi	a2, a2, 1113
	.loc	2 258 18                        # rnd_output0.c:258:18
	sw	a2, 1556(a1)
	lui	a2, 259968
	addi	a2, a2, 1684
	.loc	2 259 18                        # rnd_output0.c:259:18
	sw	a2, 1552(a1)
	.loc	2 260 19                        # rnd_output0.c:260:19
	sw	a0, 1548(a1)
	sw	a0, 1544(a1)
	sw	a0, 1540(a1)
	sw	a0, 1536(a1)
	sw	a0, 1532(a1)
	sw	a0, 1528(a1)
	sw	a0, 1524(a1)
	.loc	2 261 19                        # rnd_output0.c:261:19
	lui	a0, %hi(.L__const.func_40.l_1304)
	addi	a1, a0, %lo(.L__const.func_40.l_1304)
	lui	a0, 2
	addi	a0, a0, -1620
	sub	a0, s0, a0
	li	a2, 120
	call	memcpy@plt
	lui	a1, 4
	sub	a1, s0, a1
	lw	a1, 736(a1)                     # 4-byte Folded Reload
                                        # kill: def $x12 killed $x10
	.loc	2 262 19                        # rnd_output0.c:262:19
	lui	a0, 4
	sub	a0, s0, a0
	lw	a0, 652(a0)                     # 4-byte Folded Reload
	sw	a0, 1396(a1)
	sw	a0, 1392(a1)
	lui	a0, 699237
	addi	a0, a0, -657
	sw	a0, 1388(a1)
	lui	a0, 934551
	addi	a0, a0, -883
	sw	a0, 1384(a1)
	li	a0, 1
	.loc	2 263 17                        # rnd_output0.c:263:17
	sw	a0, 1380(a1)
	li	a0, 7
	.loc	2 264 17                        # rnd_output0.c:264:17
	sw	a0, 1376(a1)
	.loc	2 265 34                        # rnd_output0.c:265:34
	addi	a0, s0, -960
	.loc	2 265 24 is_stmt 0              # rnd_output0.c:265:24
	sw	a0, 1372(a1)
	.loc	2 266 18 is_stmt 1              # rnd_output0.c:266:18
	lui	a0, %hi(.L__const.func_40.l_1411)
	addi	a1, a0, %lo(.L__const.func_40.l_1411)
	lui	a0, 2
	addi	a0, a0, -1152
	sub	a0, s0, a0
	li	a2, 432
	call	memcpy@plt
	lui	a1, 4
	sub	a1, s0, a1
	lw	a1, 736(a1)                     # 4-byte Folded Reload
                                        # kill: def $x12 killed $x10
	.loc	2 267 34                        # rnd_output0.c:267:34
	lui	a0, 4
	sub	a0, s0, a0
	lw	a0, 652(a0)                     # 4-byte Folded Reload
	sw	a0, 932(a1)
	li	a2, -6
	.loc	2 268 18                        # rnd_output0.c:268:18
	sw	a2, 928(a1)
	.loc	2 269 18                        # rnd_output0.c:269:18
	sw	a0, 924(a1)
	li	a0, -5
	.loc	2 270 17                        # rnd_output0.c:270:17
	sh	a0, 922(a1)
	li	a0, -1
	.loc	2 271 17                        # rnd_output0.c:271:17
	sw	a0, 916(a1)
	li	a0, -16
.Ltmp120:
	.loc	2 273 19                        # rnd_output0.c:273:19
	sw	a0, -48(s0)
	.loc	2 273 14 is_stmt 0              # rnd_output0.c:273:14
	j	.LBB0_91
.LBB0_91:                               # =>This Loop Header: Depth=1
                                        #     Child Loop BB0_93 Depth 2
                                        #       Child Loop BB0_95 Depth 3
                                        #     Child Loop BB0_101 Depth 2
                                        #     Child Loop BB0_105 Depth 2
                                        #     Child Loop BB0_126 Depth 2
.Ltmp121:
	.loc	2 273 29                        # rnd_output0.c:273:29
	lw	a0, -48(s0)
	li	a1, 30
.Ltmp122:
	.loc	2 273 9                         # rnd_output0.c:273:9
	bne	a0, a1, .LBB0_131
	j	.LBB0_92
.LBB0_92:                               #   in Loop: Header=BB0_91 Depth=1
.Ltmp123:
	.loc	2 275 23 is_stmt 1              # rnd_output0.c:275:23
	lui	a0, %hi(.L__const.func_40.l_1153)
	addi	a1, a0, %lo(.L__const.func_40.l_1153)
	lui	a0, 2
	addi	a0, a0, -992
	sub	a0, s0, a0
	li	a2, 128
	call	memcpy@plt
	lui	a0, 4
	sub	a0, s0, a0
	lw	a1, 736(a0)                     # 4-byte Folded Reload
	.loc	2 276 23                        # rnd_output0.c:276:23
	lui	a0, %hi(g_947)
	addi	a0, a0, %lo(g_947)
	addi	a0, a0, 32
	sw	a0, 772(a1)
	li	a0, 0
.Ltmp124:
	.loc	2 280 20                        # rnd_output0.c:280:20
	sw	a0, 752(a1)
	.loc	2 280 18 is_stmt 0              # rnd_output0.c:280:18
	j	.LBB0_93
.LBB0_93:                               #   Parent Loop BB0_91 Depth=1
                                        # =>  This Loop Header: Depth=2
                                        #       Child Loop BB0_95 Depth 3
.Ltmp125:
	.loc	2 280 25                        # rnd_output0.c:280:25
	lui	a0, 4
	sub	a0, s0, a0
	lw	a0, 736(a0)                     # 4-byte Folded Reload
	lw	a1, 752(a0)
	li	a0, 1
.Ltmp126:
	.loc	2 280 13                        # rnd_output0.c:280:13
	blt	a0, a1, .LBB0_100
	j	.LBB0_94
.LBB0_94:                               #   in Loop: Header=BB0_93 Depth=2
	.loc	2 0 13                          # rnd_output0.c:0:13
	lui	a0, 4
	sub	a0, s0, a0
	lw	a1, 736(a0)                     # 4-byte Folded Reload
	li	a0, 0
.Ltmp127:
	.loc	2 282 24 is_stmt 1              # rnd_output0.c:282:24
	sw	a0, 748(a1)
	.loc	2 282 22 is_stmt 0              # rnd_output0.c:282:22
	j	.LBB0_95
.LBB0_95:                               #   Parent Loop BB0_91 Depth=1
                                        #     Parent Loop BB0_93 Depth=2
                                        # =>    This Inner Loop Header: Depth=3
.Ltmp128:
	.loc	2 282 29                        # rnd_output0.c:282:29
	lui	a0, 4
	sub	a0, s0, a0
	lw	a0, 736(a0)                     # 4-byte Folded Reload
	lw	a1, 748(a0)
	li	a0, 0
.Ltmp129:
	.loc	2 282 17                        # rnd_output0.c:282:17
	blt	a0, a1, .LBB0_98
	j	.LBB0_96
.LBB0_96:                               #   in Loop: Header=BB0_95 Depth=3
.Ltmp130:
	.loc	2 283 28 is_stmt 1              # rnd_output0.c:283:28
	lui	a0, 4
	sub	a0, s0, a0
	lw	a1, 736(a0)                     # 4-byte Folded Reload
	lw	a0, 752(a1)
	.loc	2 283 21 is_stmt 0              # rnd_output0.c:283:21
	slli	a2, a0, 2
	lui	a0, 2
	addi	a0, a0, -980
	sub	a0, s0, a0
	add	a0, a0, a2
	.loc	2 283 31                        # rnd_output0.c:283:31
	lw	a1, 748(a1)
	.loc	2 283 21                        # rnd_output0.c:283:21
	slli	a1, a1, 2
	add	a1, a1, a0
	addi	a0, s0, -432
	.loc	2 283 34                        # rnd_output0.c:283:34
	sw	a0, 0(a1)
	.loc	2 283 21                        # rnd_output0.c:283:21
	j	.LBB0_97
.LBB0_97:                               #   in Loop: Header=BB0_95 Depth=3
	.loc	2 282 37 is_stmt 1              # rnd_output0.c:282:37
	lui	a0, 4
	sub	a0, s0, a0
	lw	a1, 736(a0)                     # 4-byte Folded Reload
	lw	a0, 748(a1)
	addi	a0, a0, 1
	sw	a0, 748(a1)
	.loc	2 282 17 is_stmt 0              # rnd_output0.c:282:17
	j	.LBB0_95
.Ltmp131:
.LBB0_98:                               #   in Loop: Header=BB0_93 Depth=2
	.loc	2 284 13 is_stmt 1              # rnd_output0.c:284:13
	j	.LBB0_99
.Ltmp132:
.LBB0_99:                               #   in Loop: Header=BB0_93 Depth=2
	.loc	2 280 33                        # rnd_output0.c:280:33
	lui	a0, 4
	sub	a0, s0, a0
	lw	a1, 736(a0)                     # 4-byte Folded Reload
	lw	a0, 752(a1)
	addi	a0, a0, 1
	sw	a0, 752(a1)
	.loc	2 280 13 is_stmt 0              # rnd_output0.c:280:13
	j	.LBB0_93
.Ltmp133:
.LBB0_100:                              #   in Loop: Header=BB0_91 Depth=1
	.loc	2 0 13                          # rnd_output0.c:0:13
	lui	a0, 4
	sub	a0, s0, a0
	lw	a1, 736(a0)                     # 4-byte Folded Reload
	li	a0, 0
.Ltmp134:
	.loc	2 285 20 is_stmt 1              # rnd_output0.c:285:20
	sw	a0, 752(a1)
	.loc	2 285 18 is_stmt 0              # rnd_output0.c:285:18
	j	.LBB0_101
.LBB0_101:                              #   Parent Loop BB0_91 Depth=1
                                        # =>  This Inner Loop Header: Depth=2
.Ltmp135:
	.loc	2 285 25                        # rnd_output0.c:285:25
	lui	a0, 4
	sub	a0, s0, a0
	lw	a0, 736(a0)                     # 4-byte Folded Reload
	lw	a1, 752(a0)
	li	a0, 1
.Ltmp136:
	.loc	2 285 13                        # rnd_output0.c:285:13
	blt	a0, a1, .LBB0_104
	j	.LBB0_102
.LBB0_102:                              #   in Loop: Header=BB0_101 Depth=2
.Ltmp137:
	.loc	2 286 24 is_stmt 1              # rnd_output0.c:286:24
	lui	a0, 4
	sub	a0, s0, a0
	lw	a0, 736(a0)                     # 4-byte Folded Reload
	lw	a0, 752(a0)
	.loc	2 286 17 is_stmt 0              # rnd_output0.c:286:17
	slli	a1, a0, 2
	lui	a0, 2
	addi	a0, a0, -972
	sub	a0, s0, a0
	add	a1, a1, a0
	li	a0, 1
	.loc	2 286 27                        # rnd_output0.c:286:27
	sw	a0, 0(a1)
	.loc	2 286 17                        # rnd_output0.c:286:17
	j	.LBB0_103
.LBB0_103:                              #   in Loop: Header=BB0_101 Depth=2
	.loc	2 285 33 is_stmt 1              # rnd_output0.c:285:33
	lui	a0, 4
	sub	a0, s0, a0
	lw	a1, 736(a0)                     # 4-byte Folded Reload
	lw	a0, 752(a1)
	addi	a0, a0, 1
	sw	a0, 752(a1)
	.loc	2 285 13 is_stmt 0              # rnd_output0.c:285:13
	j	.LBB0_101
.Ltmp138:
.LBB0_104:                              #   in Loop: Header=BB0_91 Depth=1
	.loc	2 287 24 is_stmt 1              # rnd_output0.c:287:24
	lui	a1, %hi(g_589)
	li	a0, -27
	sw	a0, %lo(g_589)(a1)
	.loc	2 287 18 is_stmt 0              # rnd_output0.c:287:18
	j	.LBB0_105
.LBB0_105:                              #   Parent Loop BB0_91 Depth=1
                                        # =>  This Inner Loop Header: Depth=2
.Ltmp139:
	.loc	2 287 34                        # rnd_output0.c:287:34
	lui	a0, %hi(g_589)
	lw	a0, %lo(g_589)(a0)
	li	a1, 26
.Ltmp140:
	.loc	2 287 13                        # rnd_output0.c:287:13
	beq	a0, a1, .LBB0_125
	j	.LBB0_106
.LBB0_106:                              #   in Loop: Header=BB0_105 Depth=2
	.loc	2 0 13                          # rnd_output0.c:0:13
	lui	a0, 4
	sub	a0, s0, a0
	lw	a1, 756(a0)                     # 4-byte Folded Reload
	lui	a0, 4
	sub	a0, s0, a0
	lw	a2, 736(a0)                     # 4-byte Folded Reload
	lui	a0, 689609
	addi	a0, a0, -851
.Ltmp141:
	.loc	2 289 25 is_stmt 1              # rnd_output0.c:289:25
	sw	a0, 744(a2)
	.loc	2 290 26                        # rnd_output0.c:290:26
	lui	a0, %hi(g_8)
	addi	a0, a0, %lo(g_8)
	addi	a0, a0, 464
	sw	a0, 740(a2)
	lui	a0, 709681
	addi	a0, a0, -1903
	.loc	2 291 26                        # rnd_output0.c:291:26
	sw	a0, 736(a2)
	.loc	2 292 27                        # rnd_output0.c:292:27
	lui	a0, %hi(g_325)
	addi	a0, a0, %lo(g_325)
	sw	a0, 732(a2)
	li	a0, 0
.Ltmp142:
	.loc	2 293 32                        # rnd_output0.c:293:32
	sb	a0, 564(a1)
	.loc	2 293 22 is_stmt 0              # rnd_output0.c:293:22
	j	.LBB0_107
.LBB0_107:                              #   in Loop: Header=BB0_105 Depth=2
.Ltmp143:
	.loc	2 293 45                        # rnd_output0.c:293:45
	lui	a0, 4
	sub	a0, s0, a0
	lw	a0, 756(a0)                     # 4-byte Folded Reload
	lb	a1, 564(a0)
	li	a0, -8
.Ltmp144:
	.loc	2 293 17                        # rnd_output0.c:293:17
	blt	a0, a1, .LBB0_123
	j	.LBB0_108
.LBB0_108:
	.loc	2 0 17                          # rnd_output0.c:0:17
	lui	a0, 4
	sub	a0, s0, a0
	lw	a1, 736(a0)                     # 4-byte Folded Reload
	li	a0, 3
.Ltmp145:
	.loc	2 296 29 is_stmt 1              # rnd_output0.c:296:29
	sw	a0, 700(a1)
	.loc	2 297 30                        # rnd_output0.c:297:30
	lui	a0, %hi(g_955)
	addi	a0, a0, %lo(g_955)
	addi	a0, a0, 26
	sw	a0, 696(a1)
	li	a0, 8
	.loc	2 298 30                        # rnd_output0.c:298:30
	sh	a0, 694(a1)
	.loc	2 299 47                        # rnd_output0.c:299:47
	addi	a0, s0, -428
	.loc	2 299 31 is_stmt 0              # rnd_output0.c:299:31
	sw	a0, 688(a1)
	li	a0, 1
	.loc	2 300 30 is_stmt 1              # rnd_output0.c:300:30
	sw	a0, 684(a1)
	li	a0, 0
.Ltmp146:
	.loc	2 302 28                        # rnd_output0.c:302:28
	sw	a0, 680(a1)
	.loc	2 302 26 is_stmt 0              # rnd_output0.c:302:26
	j	.LBB0_109
.LBB0_109:                              # =>This Inner Loop Header: Depth=1
.Ltmp147:
	.loc	2 302 33                        # rnd_output0.c:302:33
	lui	a0, 4
	sub	a0, s0, a0
	lw	a0, 736(a0)                     # 4-byte Folded Reload
	lw	a1, 680(a0)
	li	a0, 6
.Ltmp148:
	.loc	2 302 21                        # rnd_output0.c:302:21
	blt	a0, a1, .LBB0_112
	j	.LBB0_110
.LBB0_110:                              #   in Loop: Header=BB0_109 Depth=1
.Ltmp149:
	.loc	2 303 38 is_stmt 1              # rnd_output0.c:303:38
	lui	a0, 4
	sub	a0, s0, a0
	lw	a1, 736(a0)                     # 4-byte Folded Reload
	addi	a0, s0, -408
	.loc	2 303 32 is_stmt 0              # rnd_output0.c:303:32
	lw	a1, 680(a1)
	.loc	2 303 25                        # rnd_output0.c:303:25
	slli	a2, a1, 2
	lui	a1, 2
	addi	a1, a1, -920
	sub	a1, s0, a1
	add	a1, a1, a2
	.loc	2 303 35                        # rnd_output0.c:303:35
	sw	a0, 0(a1)
	.loc	2 303 25                        # rnd_output0.c:303:25
	j	.LBB0_111
.LBB0_111:                              #   in Loop: Header=BB0_109 Depth=1
	.loc	2 302 41 is_stmt 1              # rnd_output0.c:302:41
	lui	a0, 4
	sub	a0, s0, a0
	lw	a1, 736(a0)                     # 4-byte Folded Reload
	lw	a0, 680(a1)
	addi	a0, a0, 1
	sw	a0, 680(a1)
	.loc	2 302 21 is_stmt 0              # rnd_output0.c:302:21
	j	.LBB0_109
.Ltmp150:
.LBB0_112:
	.loc	2 304 216 is_stmt 1             # rnd_output0.c:304:216
	lui	a0, 4
	sub	a0, s0, a0
	lw	a0, 732(a0)                     # 4-byte Folded Reload
	lw	a0, -148(a0)
	.loc	2 304 213 is_stmt 0             # rnd_output0.c:304:213
	snez	a0, a0
	li	a1, 1
	.loc	2 304 177                       # rnd_output0.c:304:177
	lui	a2, 4
	sub	a2, s0, a2
	sw	a1, 612(a2)                     # 4-byte Folded Spill
	call	safe_mul_func_int32_t_s_s
	lui	a1, 4
	sub	a1, s0, a1
	lw	a2, 736(a1)                     # 4-byte Folded Reload
	.loc	2 304 297                       # rnd_output0.c:304:297
	lw	a1, 712(a2)
	.loc	2 304 294                       # rnd_output0.c:304:294
	snez	a1, a1
	.loc	2 304 310                       # rnd_output0.c:304:310
	lw	a3, 700(a2)
	.loc	2 304 308                       # rnd_output0.c:304:308
	or	a1, a1, a3
	.loc	2 304 280                       # rnd_output0.c:304:280
	snez	a1, a1
	.loc	2 304 257                       # rnd_output0.c:304:257
	lw	a3, 696(a2)
	.loc	2 304 265                       # rnd_output0.c:304:265
	sh	a1, 0(a3)
	.loc	2 304 322                       # rnd_output0.c:304:322
	lw	a2, 744(a2)
	.loc	2 304 320                       # rnd_output0.c:304:320
	slt	a1, a1, a2
	.loc	2 304 150                       # rnd_output0.c:304:150
	slli	a0, a0, 16
	srai	a0, a0, 16
	call	safe_mul_func_int16_t_s_s
	mv	a1, a0
	.loc	2 304 90                        # rnd_output0.c:304:90
	lui	a0, 4
	sub	a0, s0, a0
	lw	a0, 612(a0)                     # 4-byte Folded Reload
	slli	a1, a1, 16
	srli	a1, a1, 16
	call	safe_mod_func_uint16_t_u_u
	.loc	2 304 337                       # rnd_output0.c:304:337
	lui	a1, %hi(g_92)
	lui	a2, 4
	sub	a2, s0, a2
	sw	a1, 616(a2)                     # 4-byte Folded Spill
	lw	a1, %lo(g_92)(a1)
	.loc	2 304 336                       # rnd_output0.c:304:336
	lw	a3, 4(a1)
	lw	a2, 0(a1)
	li	a1, 0
	.loc	2 304 62                        # rnd_output0.c:304:62
	lui	a4, 4
	sub	a4, s0, a4
	sw	a1, 632(a4)                     # 4-byte Folded Spill
	call	safe_sub_func_uint64_t_u_u
	lui	a2, 4
	sub	a2, s0, a2
	lw	a2, 736(a2)                     # 4-byte Folded Reload
	.loc	2 304 348                       # rnd_output0.c:304:348
	lw	a3, 700(a2)
	srai	a2, a3, 31
	.loc	2 304 345                       # rnd_output0.c:304:345
	xor	a0, a0, a3
	xor	a1, a1, a2
	or	a0, a0, a1
	seqz	a0, a0
	li	a1, 7
	.loc	2 304 34                        # rnd_output0.c:304:34
	call	safe_add_func_int16_t_s_s
	mv	a3, a0
	.loc	2 304 23                        # rnd_output0.c:304:23
	lui	a0, 4
	sub	a0, s0, a0
	lw	a0, 616(a0)                     # 4-byte Folded Reload
	lui	a1, %hi(g_200)
	lw	a2, %lo(g_200)(a1)
	.loc	2 304 30                        # rnd_output0.c:304:30
	lw	a1, 0(a2)
	and	a1, a1, a3
	sw	a1, 0(a2)
.Ltmp151:
	.loc	2 305 107 is_stmt 1             # rnd_output0.c:305:107
	lw	a0, %lo(g_92)(a0)
	.loc	2 305 106 is_stmt 0             # rnd_output0.c:305:106
	lw	a1, 4(a0)
	lw	a0, 0(a0)
	.loc	2 305 73                        # rnd_output0.c:305:73
	call	safe_unary_minus_func_int64_t_s
	mv	a2, a1
	lui	a1, 4
	sub	a1, s0, a1
	lw	a1, 736(a1)                     # 4-byte Folded Reload
	lui	a3, 4
	sub	a3, s0, a3
	sw	a2, 620(a3)                     # 4-byte Folded Spill
	.loc	2 305 167                       # rnd_output0.c:305:167
	lui	a2, 4
	sub	a2, s0, a2
	sw	a0, 624(a2)                     # 4-byte Folded Spill
	lw	a0, 772(a1)
	.loc	2 305 240                       # rnd_output0.c:305:240
	lui	a2, 4
	sub	a2, s0, a2
	sw	a0, 628(a2)                     # 4-byte Folded Spill
	lw	a0, -24(s0)
	.loc	2 305 239                       # rnd_output0.c:305:239
	lw	a0, 0(a0)
	.loc	2 305 247                       # rnd_output0.c:305:247
	lhu	a1, 694(a1)
	.loc	2 305 209                       # rnd_output0.c:305:209
	call	safe_lshift_func_int32_t_s_u
	lui	a1, 4
	sub	a1, s0, a1
	lw	a1, 632(a1)                     # 4-byte Folded Reload
	mv	a2, a0
	lui	a0, 4
	sub	a0, s0, a0
	lw	a0, 736(a0)                     # 4-byte Folded Reload
	.loc	2 305 453                       # rnd_output0.c:305:453
	lui	a3, 4
	sub	a3, s0, a3
	sw	a2, 636(a3)                     # 4-byte Folded Spill
	lw	a2, 772(a0)
	.loc	2 305 449                       # rnd_output0.c:305:449
	lh	a0, 0(a2)
	addi	a0, a0, 1
	sh	a0, 0(a2)
	.loc	2 305 462                       # rnd_output0.c:305:462
	slli	a0, a0, 16
	lui	a2, 4
	sub	a2, s0, a2
	sw	a1, 640(a2)                     # 4-byte Folded Spill
	beqz	a0, .LBB0_114
	j	.LBB0_113
.LBB0_113:
	.loc	2 305 511                       # rnd_output0.c:305:511
	lui	a0, 4
	sub	a0, s0, a0
	lw	a1, 736(a0)                     # 4-byte Folded Reload
	lw	a0, 740(a1)
	.loc	2 305 509                       # rnd_output0.c:305:509
	sw	a0, 764(a1)
	lui	a1, 2
	addi	a1, a1, -916
	sub	a1, s0, a1
	.loc	2 305 519                       # rnd_output0.c:305:519
	xor	a0, a0, a1
	seqz	a0, a0
	lui	a1, 746023
	addi	a2, a1, 1003
	lui	a1, 874314
	addi	a3, a1, 1243
	li	a1, 0
	.loc	2 305 467                       # rnd_output0.c:305:467
	call	safe_add_func_uint64_t_u_u
	.loc	2 305 565                       # rnd_output0.c:305:565
	lui	a0, %hi(g_69)
	addi	a0, a0, %lo(g_69)
	lw	a0, 36(a0)
	.loc	2 305 462                       # rnd_output0.c:305:462
	snez	a0, a0
	lui	a1, 4
	sub	a1, s0, a1
	sw	a0, 640(a1)                     # 4-byte Folded Spill
	j	.LBB0_114
.LBB0_114:
	.loc	2 0 0                           # rnd_output0.c:0:0
	lui	a0, 4
	sub	a0, s0, a0
	lw	a1, 736(a0)                     # 4-byte Folded Reload
	lui	a0, 4
	sub	a0, s0, a0
	lw	a0, 640(a0)                     # 4-byte Folded Reload
	.loc	2 305 462                       # rnd_output0.c:305:462
	andi	a2, a0, 1
	.loc	2 305 444                       # rnd_output0.c:305:444
	lw	a0, 856(a1)
	or	a0, a0, a2
	sw	a0, 856(a1)
	li	a1, 0
	.loc	2 305 571                       # rnd_output0.c:305:571
	lui	a2, 4
	sub	a2, s0, a2
	sw	a1, 608(a2)                     # 4-byte Folded Spill
	beqz	a0, .LBB0_116
	j	.LBB0_115
.LBB0_115:
	.loc	2 305 574                       # rnd_output0.c:305:574
	lw	a1, -36(s0)
	lw	a0, -40(s0)
	.loc	2 305 571                       # rnd_output0.c:305:571
	or	a0, a0, a1
	snez	a0, a0
	lui	a1, 4
	sub	a1, s0, a1
	sw	a0, 608(a1)                     # 4-byte Folded Spill
	j	.LBB0_116
.LBB0_116:
	.loc	2 0 0                           # rnd_output0.c:0:0
	lui	a0, 4
	sub	a0, s0, a0
	lw	a0, 608(a0)                     # 4-byte Folded Reload
	.loc	2 305 426                       # rnd_output0.c:305:426
	andi	a0, a0, 1
	lui	a1, 558220
	addi	a2, a1, -1335
	lui	a1, 798628
	addi	a3, a1, -351
	li	a1, 0
	.loc	2 305 399                       # rnd_output0.c:305:399
	lui	a4, 4
	sub	a4, s0, a4
	sw	a1, 600(a4)                     # 4-byte Folded Spill
	call	safe_div_func_uint64_t_u_u
	.loc	2 305 372                       # rnd_output0.c:305:372
	slli	a0, a0, 16
	srai	a0, a0, 16
	lui	a1, 1048568
	addi	a1, a1, 1781
	call	safe_div_func_int16_t_s_s
	lui	a1, 4
	sub	a1, s0, a1
	lw	a1, 600(a1)                     # 4-byte Folded Reload
	mv	a3, a0
	.loc	2 305 360                       # rnd_output0.c:305:360
	lui	a0, 4
	sub	a0, s0, a0
	lw	a0, 736(a0)                     # 4-byte Folded Reload
	lw	a2, 688(a0)
	.loc	2 305 368                       # rnd_output0.c:305:368
	lw	a0, 0(a2)
	xor	a0, a0, a3
	sw	a0, 0(a2)
	.loc	2 305 618                       # rnd_output0.c:305:618
	lw	a3, -28(s0)
	lw	a2, -32(s0)
	.loc	2 305 329                       # rnd_output0.c:305:329
	call	safe_sub_func_int64_t_s_s
	.loc	2 305 626                       # rnd_output0.c:305:626
	lui	a1, %hi(g_391)
	lw	a1, %lo(g_391)(a1)
	.loc	2 305 300                       # rnd_output0.c:305:300
	slli	a0, a0, 24
	srai	a0, a0, 24
	call	safe_lshift_func_int8_t_s_u
	li	a1, 4
	.loc	2 305 272                       # rnd_output0.c:305:272
	call	safe_mul_func_uint32_t_u_u
	lui	a1, 4
	sub	a1, s0, a1
	lw	a1, 636(a1)                     # 4-byte Folded Reload
                                        # kill: def $x12 killed $x10
	lui	a0, 4
	sub	a0, s0, a0
	lw	a0, 600(a0)                     # 4-byte Folded Reload
	li	a2, 1
	.loc	2 305 665                       # rnd_output0.c:305:665
	lui	a3, 4
	sub	a3, s0, a3
	sw	a2, 604(a3)                     # 4-byte Folded Spill
	blt	a0, a1, .LBB0_118
	j	.LBB0_117
.LBB0_117:
	.loc	2 305 668                       # rnd_output0.c:305:668
	lw	a1, -28(s0)
	lw	a0, -32(s0)
	.loc	2 305 665                       # rnd_output0.c:305:665
	or	a0, a0, a1
	snez	a0, a0
	lui	a1, 4
	sub	a1, s0, a1
	sw	a0, 604(a1)                     # 4-byte Folded Spill
	j	.LBB0_118
.LBB0_118:
	.loc	2 0 665                         # rnd_output0.c:0:665
	lui	a0, 4
	sub	a0, s0, a0
	lw	a1, 736(a0)                     # 4-byte Folded Reload
	lui	a0, 4
	sub	a0, s0, a0
	lw	a0, 604(a0)                     # 4-byte Folded Reload
	.loc	2 305 665                       # rnd_output0.c:305:665
	andi	a0, a0, 1
	.loc	2 305 677                       # rnd_output0.c:305:677
	lw	a1, 736(a1)
	.loc	2 305 674                       # rnd_output0.c:305:674
	xor	a0, a0, a1
	snez	a0, a0
	lui	a1, 6
	addi	a1, a1, -1083
	.loc	2 305 179                       # rnd_output0.c:305:179
	call	safe_mul_func_int16_t_s_s
                                        # kill: def $x11 killed $x10
	.loc	2 305 174                       # rnd_output0.c:305:174
	lui	a0, 4
	sub	a0, s0, a0
	lw	a0, 628(a0)                     # 4-byte Folded Reload
	snez	a1, a0
	li	a0, -7
	.loc	2 305 134                       # rnd_output0.c:305:134
	call	safe_sub_func_int8_t_s_s
	lui	a1, 4
	sub	a1, s0, a1
	lw	a2, 620(a1)                     # 4-byte Folded Reload
	lui	a1, 4
	sub	a1, s0, a1
	lw	a1, 736(a1)                     # 4-byte Folded Reload
	mv	a3, a0
	.loc	2 305 131                       # rnd_output0.c:305:131
	lui	a0, 4
	sub	a0, s0, a0
	lw	a0, 624(a0)                     # 4-byte Folded Reload
	sw	a3, 760(a1)
	.loc	2 305 727                       # rnd_output0.c:305:727
	lw	a3, -48(s0)
	.loc	2 305 115                       # rnd_output0.c:305:115
	xor	a0, a0, a3
	or	a0, a0, a2
	seqz	a0, a0
	.loc	2 305 737                       # rnd_output0.c:305:737
	lw	a1, 740(a1)
	.loc	2 305 736                       # rnd_output0.c:305:736
	lw	a2, 0(a1)
	srai	a3, a2, 31
	li	a1, 0
	.loc	2 305 45                        # rnd_output0.c:305:45
	call	safe_add_func_int64_t_s_s
                                        # kill: def $x10 killed $x11
	.loc	2 305 760                       # rnd_output0.c:305:760
	lui	a0, 4
	sub	a0, s0, a0
	lw	a1, 736(a0)                     # 4-byte Folded Reload
	lui	a0, 2
	addi	a0, a0, -928
	sub	a0, s0, a0
	.loc	2 305 774                       # rnd_output0.c:305:774
	lw	a1, 1560(a1)
.Ltmp152:
	.loc	2 305 25                        # rnd_output0.c:305:25
	beq	a0, a1, .LBB0_120
	j	.LBB0_119
.LBB0_119:
.Ltmp153:
	.loc	2 307 32 is_stmt 1              # rnd_output0.c:307:32
	lui	a0, 4
	sub	a0, s0, a0
	lw	a0, 736(a0)                     # 4-byte Folded Reload
	lw	a0, 740(a0)
	.loc	2 307 25 is_stmt 0              # rnd_output0.c:307:25
	sw	a0, -20(s0)
	j	.LBB0_254
.Ltmp154:
.LBB0_120:
	.loc	2 311 76 is_stmt 1              # rnd_output0.c:311:76
	lui	a0, 4
	sub	a0, s0, a0
	lw	a1, 736(a0)                     # 4-byte Folded Reload
	lui	a0, %hi(g_813)
	lw	a0, %lo(g_813)(a0)
	.loc	2 311 83 is_stmt 0              # rnd_output0.c:311:83
	lw	a1, 684(a1)
	.loc	2 311 125                       # rnd_output0.c:311:125
	lui	a2, %hi(g_556)
	lw	a2, %lo(g_556)(a2)
	.loc	2 311 90                        # rnd_output0.c:311:90
	xor	a1, a1, a2
	snez	a1, a1
	.loc	2 311 79                        # rnd_output0.c:311:79
	xor	a0, a0, a1
	seqz	a0, a0
	.loc	2 311 196                       # rnd_output0.c:311:196
	lui	a0, %hi(g_645)
	lbu	a0, %lo(g_645)(a0)
	li	a1, 6
	.loc	2 311 161                       # rnd_output0.c:311:161
	call	safe_rshift_func_uint8_t_u_s
	.loc	2 311 247                       # rnd_output0.c:311:247
	lui	a1, 4
	sub	a1, s0, a1
	sw	a0, 592(a1)                     # 4-byte Folded Spill
	lw	a0, -48(s0)
	li	a1, 1
	.loc	2 311 252                       # rnd_output0.c:311:252
	lui	a2, 4
	sub	a2, s0, a2
	sw	a1, 596(a2)                     # 4-byte Folded Spill
	bnez	a0, .LBB0_122
	j	.LBB0_121
.LBB0_121:
	.loc	2 311 321                       # rnd_output0.c:311:321
	lui	a0, %hi(g_292)
	lbu	a0, %lo(g_292)(a0)
	.loc	2 311 325                       # rnd_output0.c:311:325
	lbu	a1, -32(s0)
	.loc	2 311 283                       # rnd_output0.c:311:283
	call	safe_mod_func_uint8_t_u_u
	lui	a1, 4
	sub	a1, s0, a1
	lw	a1, 736(a1)                     # 4-byte Folded Reload
	.loc	2 311 333                       # rnd_output0.c:311:333
	lw	a1, 700(a1)
	.loc	2 311 256                       # rnd_output0.c:311:256
	call	safe_sub_func_int32_t_s_s
	.loc	2 311 252                       # rnd_output0.c:311:252
	snez	a0, a0
	lui	a1, 4
	sub	a1, s0, a1
	sw	a0, 596(a1)                     # 4-byte Folded Spill
	j	.LBB0_122
.LBB0_122:
	.loc	2 0 252                         # rnd_output0.c:0:252
	lui	a0, 4
	sub	a0, s0, a0
	lw	a0, 596(a0)                     # 4-byte Folded Reload
	.loc	2 311 345                       # rnd_output0.c:311:345
	lui	a0, %hi(g_302)
	lw	a0, %lo(g_302)(a0)
	.loc	2 311 244                       # rnd_output0.c:311:244
	seqz	a0, a0
	.loc	2 311 355                       # rnd_output0.c:311:355
	lbu	a1, -44(s0)
	.loc	2 311 206                       # rnd_output0.c:311:206
	call	safe_sub_func_uint8_t_u_u
	mv	a1, a0
	.loc	2 311 135                       # rnd_output0.c:311:135
	lui	a0, 4
	sub	a0, s0, a0
	lw	a0, 592(a0)                     # 4-byte Folded Reload
	slli	a1, a1, 24
	srai	a1, a1, 24
	slli	a0, a0, 24
	srai	a0, a0, 24
	call	safe_mul_func_int8_t_s_s
	.loc	2 311 367                       # rnd_output0.c:311:367
	lw	a0, -36(s0)
	.loc	2 311 66                        # rnd_output0.c:311:66
	srli	a0, a0, 31
	.loc	2 311 380                       # rnd_output0.c:311:380
	lw	a2, -48(s0)
	li	a3, 0
	.loc	2 311 40                        # rnd_output0.c:311:40
	mv	a1, a3
	call	safe_mod_func_int64_t_s_s
	mv	a2, a0
	lui	a0, 4
	sub	a0, s0, a0
	lw	a0, 736(a0)                     # 4-byte Folded Reload
	lui	a3, 4
	sub	a3, s0, a3
	sw	a2, 588(a3)                     # 4-byte Folded Spill
                                        # kill: def $x12 killed $x11
	.loc	2 311 29                        # rnd_output0.c:311:29
	lui	a1, 4
	sub	a1, s0, a1
	lw	a1, 588(a1)                     # 4-byte Folded Reload
	lui	a2, %hi(g_1126)
	lw	a2, %lo(g_1126)(a2)
	.loc	2 311 28                        # rnd_output0.c:311:28
	lw	a2, 0(a2)
	.loc	2 311 27                        # rnd_output0.c:311:27
	lw	a2, 0(a2)
	.loc	2 311 37                        # rnd_output0.c:311:37
	sw	a1, 0(a2)
	.loc	2 312 32 is_stmt 1              # rnd_output0.c:312:32
	lw	a0, 740(a0)
	.loc	2 312 25 is_stmt 0              # rnd_output0.c:312:25
	sw	a0, -20(s0)
	j	.LBB0_254
.Ltmp155:
.LBB0_123:                              #   in Loop: Header=BB0_105 Depth=2
	.loc	2 315 13 is_stmt 1              # rnd_output0.c:315:13
	j	.LBB0_124
.Ltmp156:
.LBB0_124:                              #   in Loop: Header=BB0_105 Depth=2
	.loc	2 287 83                        # rnd_output0.c:287:83
	lui	a0, %hi(g_589)
	lui	a1, 4
	sub	a1, s0, a1
	sw	a0, 584(a1)                     # 4-byte Folded Spill
	lw	a0, %lo(g_589)(a0)
	srai	a1, a0, 31
	li	a2, 1
	li	a3, 0
	.loc	2 287 56 is_stmt 0              # rnd_output0.c:287:56
	call	safe_add_func_uint64_t_u_u
                                        # kill: def $x12 killed $x11
	.loc	2 287 54                        # rnd_output0.c:287:54
	lui	a1, 4
	sub	a1, s0, a1
	lw	a1, 584(a1)                     # 4-byte Folded Reload
	sw	a0, %lo(g_589)(a1)
	.loc	2 287 13                        # rnd_output0.c:287:13
	j	.LBB0_105
.Ltmp157:
.LBB0_125:                              #   in Loop: Header=BB0_91 Depth=1
	.loc	2 316 24 is_stmt 1              # rnd_output0.c:316:24
	lui	a1, %hi(g_252)
	li	a0, 0
	sb	a0, %lo(g_252)(a1)
	.loc	2 316 18 is_stmt 0              # rnd_output0.c:316:18
	j	.LBB0_126
.LBB0_126:                              #   Parent Loop BB0_91 Depth=1
                                        # =>  This Inner Loop Header: Depth=2
.Ltmp158:
	.loc	2 316 29                        # rnd_output0.c:316:29
	lui	a0, %hi(g_252)
	lb	a1, %lo(g_252)(a0)
	li	a0, 7
.Ltmp159:
	.loc	2 316 13                        # rnd_output0.c:316:13
	blt	a0, a1, .LBB0_129
	j	.LBB0_127
.LBB0_127:                              #   in Loop: Header=BB0_126 Depth=2
	.loc	2 0 13                          # rnd_output0.c:0:13
	lui	a0, 4
	sub	a0, s0, a0
	lw	a0, 736(a0)                     # 4-byte Folded Reload
	li	a1, 0
.Ltmp160:
	.loc	2 318 27 is_stmt 1              # rnd_output0.c:318:27
	sw	a1, 676(a0)
	sw	a1, 672(a0)
	lui	a1, 66981
	addi	a1, a1, 947
	sw	a1, 668(a0)
	lui	a1, 112217
	addi	a1, a1, -189
	sw	a1, 664(a0)
	.loc	2 319 22                        # rnd_output0.c:319:22
	lui	a1, %hi(g_252)
	lb	a2, %lo(g_252)(a1)
	.loc	2 319 17 is_stmt 0              # rnd_output0.c:319:17
	lui	a1, %hi(g_69)
	addi	a1, a1, %lo(g_69)
	slli	a2, a2, 4
	add	a1, a1, a2
	.loc	2 319 31                        # rnd_output0.c:319:31
	lw	a2, 676(a0)
	sw	a2, 12(a1)
	lw	a2, 672(a0)
	sw	a2, 8(a1)
	lw	a2, 668(a0)
	sw	a2, 4(a1)
	lw	a0, 664(a0)
	sw	a0, 0(a1)
	.loc	2 320 13 is_stmt 1              # rnd_output0.c:320:13
	j	.LBB0_128
.Ltmp161:
.LBB0_128:                              #   in Loop: Header=BB0_126 Depth=2
	.loc	2 316 46                        # rnd_output0.c:316:46
	lui	a1, %hi(g_252)
	lbu	a0, %lo(g_252)(a1)
	addi	a0, a0, 1
	sb	a0, %lo(g_252)(a1)
	.loc	2 316 13 is_stmt 0              # rnd_output0.c:316:13
	j	.LBB0_126
.Ltmp162:
.LBB0_129:                              #   in Loop: Header=BB0_91 Depth=1
	.loc	2 321 30 is_stmt 1              # rnd_output0.c:321:30
	lui	a0, %hi(g_334)
	lw	a0, %lo(g_334)(a0)
	.loc	2 321 29 is_stmt 0              # rnd_output0.c:321:29
	lw	a2, 0(a0)
	.loc	2 321 17                        # rnd_output0.c:321:17
	lui	a0, %hi(g_1126)
	lw	a0, %lo(g_1126)(a0)
	.loc	2 321 16                        # rnd_output0.c:321:16
	lw	a0, 0(a0)
	.loc	2 321 15                        # rnd_output0.c:321:15
	lw	a1, 0(a0)
	.loc	2 321 25                        # rnd_output0.c:321:25
	lw	a0, 0(a1)
	xor	a0, a0, a2
	sw	a0, 0(a1)
	.loc	2 322 9 is_stmt 1               # rnd_output0.c:322:9
	j	.LBB0_130
.Ltmp163:
.LBB0_130:                              #   in Loop: Header=BB0_91 Depth=1
	.loc	2 273 46                        # rnd_output0.c:273:46
	lw	a0, -48(s0)
	addi	a0, a0, 1
	sw	a0, -48(s0)
	.loc	2 273 9 is_stmt 0               # rnd_output0.c:273:9
	j	.LBB0_91
.Ltmp164:
.LBB0_131:
	.loc	2 322 9 is_stmt 1               # rnd_output0.c:322:9
	j	.LBB0_132
.Ltmp165:
.LBB0_132:                              # =>This Loop Header: Depth=1
                                        #     Child Loop BB0_133 Depth 2
                                        #       Child Loop BB0_147 Depth 3
                                        #         Child Loop BB0_154 Depth 4
                                        #     Child Loop BB0_179 Depth 2
                                        #       Child Loop BB0_181 Depth 3
                                        #       Child Loop BB0_187 Depth 3
	#DEBUG_LABEL: lbl_1307
	.loc	2 324 21                        # rnd_output0.c:324:21
	lui	a1, %hi(g_1000)
	li	a0, -29
	sw	a0, %lo(g_1000)(a1)
	.loc	2 324 14 is_stmt 0              # rnd_output0.c:324:14
	j	.LBB0_133
.LBB0_133:                              #   Parent Loop BB0_132 Depth=1
                                        # =>  This Loop Header: Depth=2
                                        #       Child Loop BB0_147 Depth 3
                                        #         Child Loop BB0_154 Depth 4
.Ltmp166:
	.loc	2 324 31                        # rnd_output0.c:324:31
	lui	a0, %hi(g_1000)
	lw	a0, %lo(g_1000)(a0)
	li	a1, 15
.Ltmp167:
	.loc	2 324 9                         # rnd_output0.c:324:9
	bne	a0, a1, .LBB0_178
	j	.LBB0_134
.LBB0_134:                              #   in Loop: Header=BB0_133 Depth=2
.Ltmp168:
	.loc	2 326 28 is_stmt 1              # rnd_output0.c:326:28
	lui	a0, 4
	sub	a0, s0, a0
	lw	a1, 736(a0)                     # 4-byte Folded Reload
	lui	a0, %hi(g_13)
	addi	a0, a0, %lo(g_13)
	sw	a0, 660(a1)
	li	a0, -1
	.loc	2 327 21                        # rnd_output0.c:327:21
	sw	a0, 656(a1)
	.loc	2 328 33                        # rnd_output0.c:328:33
	addi	a0, s0, -2048
	addi	a0, a0, -960
	.loc	2 328 23 is_stmt 0              # rnd_output0.c:328:23
	sw	a0, 652(a1)
	.loc	2 329 20 is_stmt 1              # rnd_output0.c:329:20
	lui	a0, %hi(.L__const.func_40.l_1246)
	addi	a1, a0, %lo(.L__const.func_40.l_1246)
	lui	a0, 2
	addi	a0, a0, -833
	sub	a0, s0, a0
	li	a2, 35
	call	memcpy@plt
	lui	a1, 4
	sub	a1, s0, a1
	lw	a2, 736(a1)                     # 4-byte Folded Reload
                                        # kill: def $x11 killed $x10
	.loc	2 330 23                        # rnd_output0.c:330:23
	lui	a0, 4
	sub	a0, s0, a0
	lw	a0, 756(a0)                     # 4-byte Folded Reload
	lui	a1, %hi(g_1292)
	addi	a1, a1, %lo(g_1292)
	sw	a1, 612(a2)
	.loc	2 332 16                        # rnd_output0.c:332:16
	lui	a1, %hi(g_1126)
	lw	a1, %lo(g_1126)(a1)
	.loc	2 332 15 is_stmt 0              # rnd_output0.c:332:15
	lw	a2, 0(a1)
	li	a1, 0
	.loc	2 332 24                        # rnd_output0.c:332:24
	sw	a1, 0(a2)
.Ltmp169:
	.loc	2 333 30 is_stmt 1              # rnd_output0.c:333:30
	lw	a0, 560(a0)
.Ltmp170:
	.loc	2 333 17 is_stmt 0              # rnd_output0.c:333:17
	beqz	a0, .LBB0_146
	j	.LBB0_135
.LBB0_135:                              #   in Loop: Header=BB0_133 Depth=2
	.loc	2 0 17                          # rnd_output0.c:0:17
	lui	a0, 4
	sub	a0, s0, a0
	lw	a1, 736(a0)                     # 4-byte Folded Reload
	lui	a0, 865574
	addi	a0, a0, 2013
.Ltmp171:
	.loc	2 335 25 is_stmt 1              # rnd_output0.c:335:25
	sw	a0, 600(a1)
.Ltmp172:
	.loc	2 336 23                        # rnd_output0.c:336:23
	lui	a0, %hi(g_334)
	lw	a0, %lo(g_334)(a0)
	.loc	2 336 22 is_stmt 0              # rnd_output0.c:336:22
	lw	a0, 0(a0)
.Ltmp173:
	.loc	2 336 21                        # rnd_output0.c:336:21
	beqz	a0, .LBB0_137
	j	.LBB0_136
.LBB0_136:                              #   in Loop: Header=BB0_132 Depth=1
.Ltmp174:
	.loc	2 337 21 is_stmt 1              # rnd_output0.c:337:21
	j	.LBB0_178
.Ltmp175:
.LBB0_137:                              #   in Loop: Header=BB0_133 Depth=2
	.loc	2 338 26                        # rnd_output0.c:338:26
	lw	a0, -24(s0)
	.loc	2 338 25 is_stmt 0              # rnd_output0.c:338:25
	lw	a0, 0(a0)
	.loc	2 338 22                        # rnd_output0.c:338:22
	sw	a0, -44(s0)
	addi	a0, s0, -2048
	addi	a0, a0, -857
.Ltmp176:
	.loc	2 339 130 is_stmt 1             # rnd_output0.c:339:130
	seqz	a0, a0
	.loc	2 339 174 is_stmt 0             # rnd_output0.c:339:174
	lui	a1, 4
	sub	a1, s0, a1
	sw	a0, 568(a1)                     # 4-byte Folded Spill
	li	a0, 1
	lui	a1, 4
	sub	a1, s0, a1
	sw	a0, 580(a1)                     # 4-byte Folded Spill
	call	safe_unary_minus_func_int32_t_s
	mv	a1, a0
	.loc	2 339 173                       # rnd_output0.c:339:173
	lui	a0, 4
	sub	a0, s0, a0
	lw	a0, 736(a0)                     # 4-byte Folded Reload
	lui	a2, 4
	sub	a2, s0, a2
	sw	a1, 564(a2)                     # 4-byte Folded Spill
	srai	a1, a1, 31
	.loc	2 339 241                       # rnd_output0.c:339:241
	lui	a2, 4
	sub	a2, s0, a2
	sw	a1, 560(a2)                     # 4-byte Folded Spill
	lw	a0, 600(a0)
	.loc	2 339 283                       # rnd_output0.c:339:283
	lui	a1, 4
	sub	a1, s0, a1
	sw	a0, 556(a1)                     # 4-byte Folded Spill
	lui	a0, %hi(g_152)
	lb	a0, %lo(g_152)(a0)
	.loc	2 339 252                       # rnd_output0.c:339:252
	call	safe_unary_minus_func_int8_t_s
	lui	a1, 4
	sub	a1, s0, a1
	lw	a2, 556(a1)                     # 4-byte Folded Reload
	lui	a1, 4
	sub	a1, s0, a1
	lw	a1, 560(a1)                     # 4-byte Folded Reload
	mv	a3, a0
	.loc	2 339 248                       # rnd_output0.c:339:248
	lui	a0, 4
	sub	a0, s0, a0
	lw	a0, 564(a0)                     # 4-byte Folded Reload
	slt	a2, a2, a3
	xori	a2, a2, 1
	li	a3, 0
	.loc	2 339 146                       # rnd_output0.c:339:146
	call	safe_sub_func_uint64_t_u_u
	mv	a2, a0
	lui	a0, 4
	sub	a0, s0, a0
	lw	a0, 568(a0)                     # 4-byte Folded Reload
	lui	a3, 4
	sub	a3, s0, a3
	sw	a2, 572(a3)                     # 4-byte Folded Spill
                                        # kill: def $x12 killed $x11
	.loc	2 339 94                        # rnd_output0.c:339:94
	lui	a1, 4
	sub	a1, s0, a1
	lw	a1, 572(a1)                     # 4-byte Folded Reload
	not	a1, a1
	andi	a1, a1, 255
	call	safe_mul_func_uint8_t_u_u
	.loc	2 339 91                        # rnd_output0.c:339:91
	sw	a0, -44(s0)
	lui	a1, 142919
	addi	a1, a1, -1229
	.loc	2 339 59                        # rnd_output0.c:339:59
	call	safe_sub_func_int32_t_s_s
	.loc	2 339 348                       # rnd_output0.c:339:348
	lui	a1, 4
	sub	a1, s0, a1
	sw	a0, 576(a1)                     # 4-byte Folded Spill
	lui	a0, %hi(g_92)
	lw	a1, %lo(g_92)(a0)
	.loc	2 339 347                       # rnd_output0.c:339:347
	lw	a2, 4(a1)
	lw	a1, 0(a1)
	.loc	2 339 358                       # rnd_output0.c:339:358
	lw	a0, %lo(g_92)(a0)
	.loc	2 339 357                       # rnd_output0.c:339:357
	lw	a1, 4(a0)
	lw	a0, 0(a0)
	li	a2, 58
	.loc	2 339 316                       # rnd_output0.c:339:316
	call	safe_lshift_func_int64_t_s_u
                                        # kill: def $x12 killed $x10
	lui	a0, 4
	sub	a0, s0, a0
	lw	a0, 576(a0)                     # 4-byte Folded Reload
	.loc	2 339 373                       # rnd_output0.c:339:373
	lb	a1, -48(s0)
	.loc	2 339 33                        # rnd_output0.c:339:33
	slli	a0, a0, 24
	srai	a0, a0, 24
	call	safe_add_func_int8_t_s_s
.Ltmp177:
                                        # kill: def $x11 killed $x10
	.loc	2 339 21                        # rnd_output0.c:339:21
	lui	a0, 4
	sub	a0, s0, a0
	lw	a0, 580(a0)                     # 4-byte Folded Reload
	bnez	a0, .LBB0_141
	j	.LBB0_138
.LBB0_138:                              #   in Loop: Header=BB0_133 Depth=2
.Ltmp178:
	.loc	2 341 27 is_stmt 1              # rnd_output0.c:341:27
	lw	a0, -24(s0)
	.loc	2 341 26 is_stmt 0              # rnd_output0.c:341:26
	lw	a0, 0(a0)
.Ltmp179:
	.loc	2 341 25                        # rnd_output0.c:341:25
	beqz	a0, .LBB0_140
	j	.LBB0_139
.LBB0_139:                              #   in Loop: Header=BB0_132 Depth=1
.Ltmp180:
	.loc	2 342 25 is_stmt 1              # rnd_output0.c:342:25
	j	.LBB0_178
.Ltmp181:
.LBB0_140:                              #   in Loop: Header=BB0_133 Depth=2
	.loc	2 343 17                        # rnd_output0.c:343:17
	j	.LBB0_145
.Ltmp182:
.LBB0_141:
	.loc	2 346 46                        # rnd_output0.c:346:46
	lui	a0, 4
	sub	a0, s0, a0
	lw	a1, 756(a0)                     # 4-byte Folded Reload
	lui	a0, 4
	sub	a0, s0, a0
	lw	a2, 736(a0)                     # 4-byte Folded Reload
	addi	a0, s0, -960
	.loc	2 346 36 is_stmt 0              # rnd_output0.c:346:36
	sw	a0, 596(a2)
	li	a0, 239
.Ltmp183:
	.loc	2 347 36 is_stmt 1              # rnd_output0.c:347:36
	sb	a0, 564(a1)
	.loc	2 347 26 is_stmt 0              # rnd_output0.c:347:26
	j	.LBB0_142
.LBB0_142:
.Ltmp184:
	.loc	2 347 53                        # rnd_output0.c:347:53
	lui	a0, 4
	sub	a0, s0, a0
	lw	a0, 756(a0)                     # 4-byte Folded Reload
	lb	a0, 564(a0)
	li	a1, -17
.Ltmp185:
	.loc	2 347 21                        # rnd_output0.c:347:21
	beq	a0, a1, .LBB0_144
	j	.LBB0_143
.LBB0_143:
.Ltmp186:
	.loc	2 349 40 is_stmt 1              # rnd_output0.c:349:40
	lui	a0, 4
	sub	a0, s0, a0
	lw	a0, 736(a0)                     # 4-byte Folded Reload
	lui	a1, %hi(g_589)
	addi	a1, a1, %lo(g_589)
	sw	a1, 592(a0)
	.loc	2 350 32                        # rnd_output0.c:350:32
	lw	a0, 592(a0)
	.loc	2 350 25 is_stmt 0              # rnd_output0.c:350:25
	sw	a0, -20(s0)
	j	.LBB0_254
.Ltmp187:
.LBB0_144:
	.loc	2 352 28 is_stmt 1              # rnd_output0.c:352:28
	lui	a0, 4
	sub	a0, s0, a0
	lw	a0, 736(a0)                     # 4-byte Folded Reload
	lw	a0, 660(a0)
	.loc	2 352 21 is_stmt 0              # rnd_output0.c:352:21
	sw	a0, -20(s0)
	j	.LBB0_254
.Ltmp188:
.LBB0_145:                              #   in Loop: Header=BB0_133 Depth=2
	.loc	2 354 20 is_stmt 1              # rnd_output0.c:354:20
	lui	a0, %hi(g_1126)
	lw	a0, %lo(g_1126)(a0)
	.loc	2 354 19 is_stmt 0              # rnd_output0.c:354:19
	lw	a1, 0(a0)
	addi	a0, s0, -44
	.loc	2 354 28                        # rnd_output0.c:354:28
	sw	a0, 0(a1)
	.loc	2 355 13 is_stmt 1              # rnd_output0.c:355:13
	j	.LBB0_174
.Ltmp189:
.LBB0_146:                              #   in Loop: Header=BB0_133 Depth=2
	.loc	2 0 13 is_stmt 0                # rnd_output0.c:0:13
	lui	a0, 4
	sub	a0, s0, a0
	lw	a1, 736(a0)                     # 4-byte Folded Reload
	li	a0, 0
.Ltmp190:
	.loc	2 358 27 is_stmt 1              # rnd_output0.c:358:27
	sw	a0, 580(a1)
	sw	a0, 576(a1)
	lui	a0, 303035
	addi	a0, a0, 159
	sw	a0, 572(a1)
	lui	a0, 18665
	addi	a0, a0, 1513
	sw	a0, 568(a1)
	addi	a0, s0, -2048
	addi	a0, a0, -872
	.loc	2 359 27                        # rnd_output0.c:359:27
	sw	a0, 564(a1)
	.loc	2 360 29                        # rnd_output0.c:360:29
	lui	a0, %hi(g_672)
	addi	a0, a0, %lo(g_672)
	addi	a0, a0, 424
	sw	a0, 560(a1)
.Ltmp191:
	.loc	2 361 31                        # rnd_output0.c:361:31
	lui	a1, %hi(g_645)
	li	a0, -7
	sw	a0, %lo(g_645)(a1)
	.loc	2 361 22 is_stmt 0              # rnd_output0.c:361:22
	j	.LBB0_147
.LBB0_147:                              #   Parent Loop BB0_132 Depth=1
                                        #     Parent Loop BB0_133 Depth=2
                                        # =>    This Loop Header: Depth=3
                                        #         Child Loop BB0_154 Depth 4
.Ltmp192:
	.loc	2 361 46                        # rnd_output0.c:361:46
	lui	a0, %hi(g_645)
	lw	a1, %lo(g_645)(a0)
	li	a0, 57
.Ltmp193:
	.loc	2 361 17                        # rnd_output0.c:361:17
	bltu	a0, a1, .LBB0_167
	j	.LBB0_148
.LBB0_148:                              #   in Loop: Header=BB0_147 Depth=3
	.loc	2 0 17                          # rnd_output0.c:0:17
	lui	a0, 4
	sub	a0, s0, a0
	lw	a1, 736(a0)                     # 4-byte Folded Reload
	lui	a0, 69761
	addi	a0, a0, 583
.Ltmp194:
	.loc	2 363 30 is_stmt 1              # rnd_output0.c:363:30
	sw	a0, 556(a1)
	lui	a0, 94454
	addi	a0, a0, -244
	sw	a0, 552(a1)
	li	a0, 0
	.loc	2 364 31                        # rnd_output0.c:364:31
	sw	a0, 548(a1)
	li	a0, 8
	.loc	2 365 29                        # rnd_output0.c:365:29
	sw	a0, 544(a1)
.Ltmp195:
	.loc	2 366 26                        # rnd_output0.c:366:26
	lw	a0, 552(a1)
	.loc	2 366 48 is_stmt 0              # rnd_output0.c:366:48
	lui	a2, 4
	sub	a2, s0, a2
	sw	a0, 552(a2)                     # 4-byte Folded Spill
	lw	a2, 660(a1)
	.loc	2 366 47                        # rnd_output0.c:366:47
	lw	a2, 0(a2)
	.loc	2 366 72                        # rnd_output0.c:366:72
	lui	a3, 4
	sub	a3, s0, a3
	sw	a2, 548(a3)                     # 4-byte Folded Spill
	sw	a0, 568(a1)
	.loc	2 366 112                       # rnd_output0.c:366:112
	lui	a0, %hi(g_133)
	addi	a0, a0, %lo(g_133)
	lh	a0, 1496(a0)
	.loc	2 366 135                       # rnd_output0.c:366:135
	lui	a1, %hi(g_1113)
	lh	a1, %lo(g_1113)(a1)
	.loc	2 366 86                        # rnd_output0.c:366:86
	call	safe_div_func_int16_t_s_s
                                        # kill: def $x11 killed $x10
	.loc	2 366 208                       # rnd_output0.c:366:208
	lui	a0, 4
	sub	a0, s0, a0
	lw	a0, 736(a0)                     # 4-byte Folded Reload
	lw	a0, 1556(a0)
	.loc	2 366 216                       # rnd_output0.c:366:216
	lw	a1, -40(s0)
	.loc	2 366 181                       # rnd_output0.c:366:181
	call	safe_div_func_uint32_t_u_u
	mv	a1, a0
	li	a0, -7
	.loc	2 366 144                       # rnd_output0.c:366:144
	call	safe_rshift_func_int16_t_s_u
	lui	a1, 4
	sub	a1, s0, a1
	lw	a1, 548(a1)                     # 4-byte Folded Reload
	mv	a2, a0
	.loc	2 366 56                        # rnd_output0.c:366:56
	lui	a0, 4
	sub	a0, s0, a0
	lw	a0, 552(a0)                     # 4-byte Folded Reload
	xor	a1, a1, a2
	snez	a1, a1
	.loc	2 366 33                        # rnd_output0.c:366:33
	and	a0, a0, a1
.Ltmp196:
	.loc	2 366 25                        # rnd_output0.c:366:25
	beqz	a0, .LBB0_150
	j	.LBB0_149
.LBB0_149:                              #   in Loop: Header=BB0_147 Depth=3
	.loc	2 0 25                          # rnd_output0.c:0:25
	lui	a0, 4
	sub	a0, s0, a0
	lw	a1, 736(a0)                     # 4-byte Folded Reload
	lui	a0, 257366
	addi	a0, a0, -1358
.Ltmp197:
	.loc	2 368 34 is_stmt 1              # rnd_output0.c:368:34
	sw	a0, 540(a1)
	.loc	2 369 31                        # rnd_output0.c:369:31
	lw	a0, 540(a1)
	addi	a0, a0, -1
	sw	a0, 540(a1)
	.loc	2 370 21                        # rnd_output0.c:370:21
	j	.LBB0_153
.Ltmp198:
.LBB0_150:                              #   in Loop: Header=BB0_147 Depth=3
	.loc	2 373 35                        # rnd_output0.c:373:35
	lui	a0, 4
	sub	a0, s0, a0
	lw	a0, 736(a0)                     # 4-byte Folded Reload
	lui	a1, %hi(g_200)
	addi	a1, a1, %lo(g_200)
	sw	a1, 536(a0)
	.loc	2 374 38                        # rnd_output0.c:374:38
	lw	a0, 660(a0)
	.loc	2 374 37 is_stmt 0              # rnd_output0.c:374:37
	lw	a0, 0(a0)
	li	a1, 0
	.loc	2 374 46                        # rnd_output0.c:374:46
	lui	a2, 4
	sub	a2, s0, a2
	sw	a1, 544(a2)                     # 4-byte Folded Spill
	beqz	a0, .LBB0_152
	j	.LBB0_151
.LBB0_151:                              #   in Loop: Header=BB0_147 Depth=3
	.loc	2 374 50                        # rnd_output0.c:374:50
	lui	a0, 4
	sub	a0, s0, a0
	lw	a1, 736(a0)                     # 4-byte Folded Reload
	lw	a0, 564(a1)
	.loc	2 374 103                       # rnd_output0.c:374:103
	lw	a1, 652(a1)
	.loc	2 374 57                        # rnd_output0.c:374:57
	xor	a0, a0, a1
	snez	a0, a0
	lui	a1, 4
	sub	a1, s0, a1
	sw	a0, 544(a1)                     # 4-byte Folded Spill
	j	.LBB0_152
.LBB0_152:                              #   in Loop: Header=BB0_147 Depth=3
	.loc	2 0 0                           # rnd_output0.c:0:0
	lui	a0, 4
	sub	a0, s0, a0
	lw	a1, 736(a0)                     # 4-byte Folded Reload
	lui	a0, 4
	sub	a0, s0, a0
	lw	a0, 544(a0)                     # 4-byte Folded Reload
	.loc	2 374 32                        # rnd_output0.c:374:32
	lw	a2, 656(a1)
	.loc	2 374 46                        # rnd_output0.c:374:46
	and	a0, a0, a2
	.loc	2 374 32                        # rnd_output0.c:374:32
	andi	a0, a0, 1
	sw	a0, 656(a1)
	.loc	2 375 42 is_stmt 1              # rnd_output0.c:375:42
	lw	a0, -24(s0)
	.loc	2 375 41 is_stmt 0              # rnd_output0.c:375:41
	lw	a0, 0(a0)
	.loc	2 375 38                        # rnd_output0.c:375:38
	sb	a0, 634(a1)
	.loc	2 376 32 is_stmt 1              # rnd_output0.c:376:32
	lui	a0, %hi(g_733)
	addi	a0, a0, %lo(g_733)
	lui	a1, %hi(g_1247)
	sw	a0, %lo(g_1247)(a1)
	j	.LBB0_153
.Ltmp199:
.LBB0_153:                              #   in Loop: Header=BB0_147 Depth=3
	.loc	2 0 32 is_stmt 0                # rnd_output0.c:0:32
	lui	a0, 4
	sub	a0, s0, a0
	lw	a1, 756(a0)                     # 4-byte Folded Reload
	li	a0, 238
.Ltmp200:
	.loc	2 378 32 is_stmt 1              # rnd_output0.c:378:32
	sb	a0, 627(a1)
	.loc	2 378 26 is_stmt 0              # rnd_output0.c:378:26
	j	.LBB0_154
.LBB0_154:                              #   Parent Loop BB0_132 Depth=1
                                        #     Parent Loop BB0_133 Depth=2
                                        #       Parent Loop BB0_147 Depth=3
                                        # =>      This Inner Loop Header: Depth=4
.Ltmp201:
	.loc	2 378 42                        # rnd_output0.c:378:42
	lui	a0, 4
	sub	a0, s0, a0
	lw	a0, 756(a0)                     # 4-byte Folded Reload
	lb	a0, 627(a0)
	li	a1, -5
.Ltmp202:
	.loc	2 378 21                        # rnd_output0.c:378:21
	beq	a0, a1, .LBB0_165
	j	.LBB0_155
.LBB0_155:                              #   in Loop: Header=BB0_154 Depth=4
	.loc	2 0 21                          # rnd_output0.c:0:21
	lui	a0, 4
	sub	a0, s0, a0
	lw	a1, 736(a0)                     # 4-byte Folded Reload
	lui	a0, 595964
	addi	a0, a0, -964
.Ltmp203:
	.loc	2 380 34 is_stmt 1              # rnd_output0.c:380:34
	sw	a0, 532(a1)
	addi	a0, s0, -2048
	addi	a0, a0, -912
	.loc	2 381 34                        # rnd_output0.c:381:34
	sw	a0, 528(a1)
	.loc	2 382 34                        # rnd_output0.c:382:34
	lui	a0, %hi(g_133)
	addi	a0, a0, %lo(g_133)
	addi	a0, a0, 552
	sw	a0, 524(a1)
	li	a0, 0
	.loc	2 383 33                        # rnd_output0.c:383:33
	lui	a2, 4
	sub	a2, s0, a2
	sw	a0, 528(a2)                     # 4-byte Folded Spill
	sw	a0, 520(a1)
	lui	a2, 293663
	addi	a2, a2, 1008
	.loc	2 384 33                        # rnd_output0.c:384:33
	sw	a2, 516(a1)
	.loc	2 385 35                        # rnd_output0.c:385:35
	sw	a0, 500(a1)
	sw	a0, 496(a1)
	li	a2, -1
	lui	a3, 4
	sub	a3, s0, a3
	sw	a2, 516(a3)                     # 4-byte Folded Spill
	sw	a2, 492(a1)
	li	a2, -9
	sw	a2, 488(a1)
	addi	a2, s0, -432
	.loc	2 386 36                        # rnd_output0.c:386:36
	sw	a2, 484(a1)
	.loc	2 387 43                        # rnd_output0.c:387:43
	lui	a2, 2
	addi	a2, a2, -842
	sub	a2, s0, a2
	.loc	2 387 33 is_stmt 0              # rnd_output0.c:387:33
	sw	a2, 480(a1)
	.loc	2 388 64 is_stmt 1              # rnd_output0.c:388:64
	lw	a2, 660(a1)
	.loc	2 388 63 is_stmt 0              # rnd_output0.c:388:63
	lw	a2, 0(a2)
	.loc	2 388 184                       # rnd_output0.c:388:184
	lui	a3, 4
	sub	a3, s0, a3
	sw	a2, 532(a3)                     # 4-byte Folded Spill
	lbu	a2, 532(a1)
	.loc	2 388 174                       # rnd_output0.c:388:174
	lui	a3, 4
	sub	a3, s0, a3
	sw	a2, 520(a3)                     # 4-byte Folded Spill
	lw	a3, 528(a1)
	.loc	2 388 182                       # rnd_output0.c:388:182
	sb	a2, 0(a3)
	.loc	2 388 169                       # rnd_output0.c:388:169
	sw	a2, 656(a1)
	.loc	2 388 197                       # rnd_output0.c:388:197
	addi	a2, s0, -2048
	addi	a2, a2, -288
	.loc	2 388 215                       # rnd_output0.c:388:215
	lui	a3, %hi(g_1258)
	lw	a3, %lo(g_1258)(a3)
	.loc	2 388 212                       # rnd_output0.c:388:212
	xor	a2, a2, a3
	seqz	a2, a2
	.loc	2 388 353                       # rnd_output0.c:388:353
	lui	a3, 4
	sub	a3, s0, a3
	sw	a2, 524(a3)                     # 4-byte Folded Spill
	lw	a2, 524(a1)
	.loc	2 388 361                       # rnd_output0.c:388:361
	sw	a0, 4(a2)
	sw	a0, 0(a2)
	.loc	2 388 430                       # rnd_output0.c:388:430
	lui	a0, %hi(g_252)
	lb	a0, %lo(g_252)(a0)
	.loc	2 388 441                       # rnd_output0.c:388:441
	lw	a1, 660(a1)
	.loc	2 388 440                       # rnd_output0.c:388:440
	lw	a1, 0(a1)
	.loc	2 388 437                       # rnd_output0.c:388:437
	slt	a0, a0, a1
	.loc	2 388 453                       # rnd_output0.c:388:453
	lw	a1, -24(s0)
	.loc	2 388 452                       # rnd_output0.c:388:452
	lw	a1, 0(a1)
	.loc	2 388 371                       # rnd_output0.c:388:371
	call	safe_div_func_int32_t_s_s
	li	a0, 1
	lui	a1, 4
	sub	a1, s0, a1
	sw	a0, 536(a1)                     # 4-byte Folded Spill
	li	a1, 5
	.loc	2 388 322                       # rnd_output0.c:388:322
	call	safe_add_func_int32_t_s_s
	lui	a1, 4
	sub	a1, s0, a1
	lw	a3, 528(a1)                     # 4-byte Folded Reload
	lui	a1, 4
	sub	a1, s0, a1
	lw	a2, 736(a1)                     # 4-byte Folded Reload
	.loc	2 388 321                       # rnd_output0.c:388:321
	srai	a1, a0, 31
	.loc	2 388 477                       # rnd_output0.c:388:477
	lw	a2, 572(a2)
	.loc	2 388 294                       # rnd_output0.c:388:294
	call	safe_add_func_uint64_t_u_u
	lui	a2, 4
	sub	a2, s0, a2
	lw	a3, 516(a2)                     # 4-byte Folded Reload
	li	a2, -3
	.loc	2 388 267                       # rnd_output0.c:388:267
	call	safe_mul_func_int64_t_s_s
	.loc	2 388 510                       # rnd_output0.c:388:510
	lui	a2, %hi(g_1000)
	lw	a2, %lo(g_1000)(a2)
	.loc	2 388 227                       # rnd_output0.c:388:227
	call	safe_rshift_func_uint64_t_u_u
	mv	a3, a0
	lui	a0, 4
	sub	a0, s0, a0
	lw	a0, 520(a0)                     # 4-byte Folded Reload
	mv	a2, a1
	.loc	2 388 223                       # rnd_output0.c:388:223
	lui	a1, 4
	sub	a1, s0, a1
	lw	a1, 524(a1)                     # 4-byte Folded Reload
	seqz	a2, a2
	sltu	a1, a1, a3
	not	a1, a1
	and	a1, a1, a2
	.loc	2 388 135                       # rnd_output0.c:388:135
	call	safe_add_func_uint8_t_u_u
	lui	a1, 4
	sub	a1, s0, a1
	lw	a2, 528(a1)                     # 4-byte Folded Reload
	lui	a1, 4
	sub	a1, s0, a1
	lw	a1, 736(a1)                     # 4-byte Folded Reload
	mv	a3, a0
	.loc	2 388 522                       # rnd_output0.c:388:522
	lui	a0, 4
	sub	a0, s0, a0
	lw	a0, 532(a0)                     # 4-byte Folded Reload
	slt	a2, a2, a3
	.loc	2 388 531                       # rnd_output0.c:388:531
	lw	a3, -36(s0)
	lw	a4, -40(s0)
	.loc	2 388 529                       # rnd_output0.c:388:529
	or	a2, a2, a4
	lui	a4, 9
	addi	a4, a4, -695
	.loc	2 388 537                       # rnd_output0.c:388:537
	xor	a2, a2, a4
	or	a2, a2, a3
	snez	a2, a2
	.loc	2 388 552                       # rnd_output0.c:388:552
	lw	a3, 532(a1)
	.loc	2 388 549                       # rnd_output0.c:388:549
	xor	a2, a2, a3
	snez	a2, a2
	.loc	2 388 127                       # rnd_output0.c:388:127
	slt	a0, a0, a2
	xori	a2, a0, 1
	.loc	2 388 113                       # rnd_output0.c:388:113
	lw	a0, 516(a1)
	or	a0, a0, a2
	sw	a0, 516(a1)
	.loc	2 388 77                        # rnd_output0.c:388:77
	slli	a0, a0, 24
	srai	a0, a0, 24
	li	a1, 6
	call	safe_rshift_func_int8_t_s_s
	lui	a1, 4
	sub	a1, s0, a1
	lw	a1, 536(a1)                     # 4-byte Folded Reload
	.loc	2 388 567                       # rnd_output0.c:388:567
	lui	a2, 4
	sub	a2, s0, a2
	sw	a1, 540(a2)                     # 4-byte Folded Spill
	bnez	a0, .LBB0_157
	j	.LBB0_156
.LBB0_156:                              #   in Loop: Header=BB0_154 Depth=4
	.loc	2 388 577                       # rnd_output0.c:388:577
	lui	a0, 4
	sub	a0, s0, a0
	lw	a0, 736(a0)                     # 4-byte Folded Reload
	lw	a0, 572(a0)
	.loc	2 388 567                       # rnd_output0.c:388:567
	snez	a0, a0
	lui	a1, 4
	sub	a1, s0, a1
	sw	a0, 540(a1)                     # 4-byte Folded Spill
	j	.LBB0_157
.LBB0_157:                              #   in Loop: Header=BB0_154 Depth=4
	.loc	2 0 567                         # rnd_output0.c:0:567
	lui	a0, 4
	sub	a0, s0, a0
	lw	a0, 756(a0)                     # 4-byte Folded Reload
	lui	a1, 4
	sub	a1, s0, a1
	lw	a1, 540(a1)                     # 4-byte Folded Reload
	.loc	2 388 586                       # rnd_output0.c:388:586
	lw	a0, 600(a0)
	.loc	2 388 585                       # rnd_output0.c:388:585
	lw	a1, 0(a0)
	.loc	2 388 599                       # rnd_output0.c:388:599
	lw	a0, -24(s0)
	.loc	2 388 598                       # rnd_output0.c:388:598
	lw	a0, 0(a0)
	.loc	2 388 595                       # rnd_output0.c:388:595
	slt	a0, a0, a1
	lui	a1, 323800
	addi	a2, a1, -891
	lui	a1, 1012168
	addi	a3, a1, 2023
	li	a1, 0
	.loc	2 388 33                        # rnd_output0.c:388:33
	call	safe_mul_func_int64_t_s_s
	mv	a2, a0
	lui	a0, 4
	sub	a0, s0, a0
	lw	a0, 736(a0)                     # 4-byte Folded Reload
	lui	a3, 4
	sub	a3, s0, a3
	sw	a2, 512(a3)                     # 4-byte Folded Spill
                                        # kill: def $x12 killed $x11
	.loc	2 388 30                        # rnd_output0.c:388:30
	lui	a1, 4
	sub	a1, s0, a1
	lw	a1, 512(a1)                     # 4-byte Folded Reload
	sw	a1, -44(s0)
.Ltmp204:
	.loc	2 389 29 is_stmt 1              # rnd_output0.c:389:29
	lw	a0, 1552(a0)
.Ltmp205:
	.loc	2 389 29 is_stmt 0              # rnd_output0.c:389:29
	beqz	a0, .LBB0_159
	j	.LBB0_158
.LBB0_158:                              #   in Loop: Header=BB0_147 Depth=3
.Ltmp206:
	.loc	2 390 29 is_stmt 1              # rnd_output0.c:390:29
	j	.LBB0_165
.Ltmp207:
.LBB0_159:                              #   in Loop: Header=BB0_154 Depth=4
	.loc	2 391 132                       # rnd_output0.c:391:132
	lui	a0, 4
	sub	a0, s0, a0
	lw	a0, 736(a0)                     # 4-byte Folded Reload
	lw	a1, -416(s0)
	.loc	2 391 131 is_stmt 0             # rnd_output0.c:391:131
	lw	a3, 0(a1)
	.loc	2 391 119                       # rnd_output0.c:391:119
	lw	a2, 528(a0)
	.loc	2 391 127                       # rnd_output0.c:391:127
	lbu	a1, 0(a2)
	and	a1, a1, a3
	lui	a3, 4
	sub	a3, s0, a3
	sw	a1, 496(a3)                     # 4-byte Folded Spill
	sb	a1, 0(a2)
	.loc	2 391 145                       # rnd_output0.c:391:145
	lw	a2, 484(a0)
	.loc	2 391 155                       # rnd_output0.c:391:155
	lw	a1, 500(a0)
	sw	a1, 12(a2)
	lw	a1, 496(a0)
	sw	a1, 8(a2)
	lw	a1, 492(a0)
	sw	a1, 4(a2)
	lw	a1, 488(a0)
	sw	a1, 0(a2)
	.loc	2 391 296                       # rnd_output0.c:391:296
	lw	a0, 560(a0)
	.loc	2 391 293                       # rnd_output0.c:391:293
	seqz	a0, a0
	.loc	2 391 307                       # rnd_output0.c:391:307
	lw	a1, -28(s0)
	lw	a2, -32(s0)
	.loc	2 391 304                       # rnd_output0.c:391:304
	sltu	a0, a0, a2
	not	a0, a0
	seqz	a1, a1
	and	a0, a0, a1
	.loc	2 391 315                       # rnd_output0.c:391:315
	lw	a1, -40(s0)
	.loc	2 391 282                       # rnd_output0.c:391:282
	and	a0, a0, a1
	lui	a1, 4
	sub	a1, s0, a1
	sw	a0, 500(a1)                     # 4-byte Folded Spill
	li	a1, 0
                                        # kill: def $x10 killed $x11
	.loc	2 391 327                       # rnd_output0.c:391:327
	lw	a0, -56(s0)
	.loc	2 391 334                       # rnd_output0.c:391:334
	lw	a0, 0(a0)
	.loc	2 391 382                       # rnd_output0.c:391:382
	lui	a2, 4
	sub	a2, s0, a2
	sw	a0, 504(a2)                     # 4-byte Folded Spill
	lui	a0, %hi(g_813)
	lw	a0, %lo(g_813)(a0)
	.loc	2 391 385                       # rnd_output0.c:391:385
	lui	a2, 4
	sub	a2, s0, a2
	sw	a1, 508(a2)                     # 4-byte Folded Spill
	beqz	a0, .LBB0_161
	j	.LBB0_160
.LBB0_160:                              #   in Loop: Header=BB0_154 Depth=4
	.loc	2 391 397                       # rnd_output0.c:391:397
	lui	a0, %hi(g_147)
	lw	a0, %lo(g_147)(a0)
	.loc	2 391 385                       # rnd_output0.c:391:385
	snez	a0, a0
	lui	a1, 4
	sub	a1, s0, a1
	sw	a0, 508(a1)                     # 4-byte Folded Spill
	j	.LBB0_161
.LBB0_161:                              #   in Loop: Header=BB0_154 Depth=4
	.loc	2 0 0                           # rnd_output0.c:0:0
	lui	a0, 4
	sub	a0, s0, a0
	lw	a0, 508(a0)                     # 4-byte Folded Reload
	.loc	2 391 385                       # rnd_output0.c:391:385
	andi	a0, a0, 1
	.loc	2 391 408                       # rnd_output0.c:391:408
	lui	a1, %hi(g_556)
	lb	a1, %lo(g_556+4)(a1)
	.loc	2 391 350                       # rnd_output0.c:391:350
	call	safe_div_func_int8_t_s_s
	mv	a1, a0
	li	a2, 0
	lui	a0, 15
	addi	a0, a0, -261
	.loc	2 391 424                       # rnd_output0.c:391:424
	lui	a3, 4
	sub	a3, s0, a3
	sw	a2, 492(a3)                     # 4-byte Folded Spill
	blt	a0, a1, .LBB0_163
	j	.LBB0_162
.LBB0_162:                              #   in Loop: Header=BB0_154 Depth=4
	.loc	2 0 424                         # rnd_output0.c:0:424
	li	a0, 1
	lui	a1, 4
	sub	a1, s0, a1
	sw	a0, 492(a1)                     # 4-byte Folded Spill
	j	.LBB0_163
.LBB0_163:                              #   in Loop: Header=BB0_154 Depth=4
	lui	a0, 4
	sub	a0, s0, a0
	lw	a1, 736(a0)                     # 4-byte Folded Reload
	lui	a0, 4
	sub	a0, s0, a0
	lw	a0, 500(a0)                     # 4-byte Folded Reload
	lui	a2, 4
	sub	a2, s0, a2
	lw	a2, 504(a2)                     # 4-byte Folded Reload
	lui	a3, 4
	sub	a3, s0, a3
	lw	a3, 492(a3)                     # 4-byte Folded Reload
	.loc	2 391 451                       # rnd_output0.c:391:451
	lw	a3, 612(a1)
	.loc	2 391 448                       # rnd_output0.c:391:448
	seqz	a3, a3
	.loc	2 391 342                       # rnd_output0.c:391:342
	xor	a2, a2, a3
	seqz	a2, a2
	.loc	2 391 321                       # rnd_output0.c:391:321
	or	a0, a0, a2
	.loc	2 391 270                       # rnd_output0.c:391:270
	lw	a1, 480(a1)
	.loc	2 391 278                       # rnd_output0.c:391:278
	sb	a0, 0(a1)
	.loc	2 391 236                       # rnd_output0.c:391:236
	slli	a0, a0, 24
	srai	a0, a0, 24
	call	safe_unary_minus_func_int8_t_s
	mv	a1, a0
	li	a0, -7
	.loc	2 391 194                       # rnd_output0.c:391:194
	call	safe_div_func_uint32_t_u_u
	.loc	2 391 166                       # rnd_output0.c:391:166
	slli	a0, a0, 16
	srli	a0, a0, 16
	lui	a1, 5
	addi	a1, a1, -722
	call	safe_mod_func_uint16_t_u_u
	mv	a1, a0
	.loc	2 391 90                        # rnd_output0.c:391:90
	lui	a0, 4
	sub	a0, s0, a0
	lw	a0, 496(a0)                     # 4-byte Folded Reload
	andi	a1, a1, 255
	andi	a0, a0, 255
	call	safe_div_func_uint8_t_u_u
	.loc	2 391 481                       # rnd_output0.c:391:481
	lb	a1, -40(s0)
	.loc	2 391 64                        # rnd_output0.c:391:64
	slli	a0, a0, 24
	srai	a0, a0, 24
	call	safe_div_func_int8_t_s_s
	.loc	2 391 490                       # rnd_output0.c:391:490
	lui	a1, %hi(g_8)
	addi	a1, a1, %lo(g_8)
	lw	a1, 480(a1)
	.loc	2 391 488                       # rnd_output0.c:391:488
	xor	a0, a0, a1
	.loc	2 391 34                        # rnd_output0.c:391:34
	slli	a0, a0, 24
	srai	a0, a0, 24
	li	a1, 4
	call	safe_rshift_func_int8_t_s_s
	lui	a1, 4
	sub	a1, s0, a1
	lw	a1, 756(a1)                     # 4-byte Folded Reload
	.loc	2 391 511                       # rnd_output0.c:391:511
	lhu	a1, 474(a1)
	.loc	2 391 509                       # rnd_output0.c:391:509
	or	a0, a0, a1
	.loc	2 391 30                        # rnd_output0.c:391:30
	sw	a0, -44(s0)
	.loc	2 392 21 is_stmt 1              # rnd_output0.c:392:21
	j	.LBB0_164
.Ltmp208:
.LBB0_164:                              #   in Loop: Header=BB0_154 Depth=4
	.loc	2 378 63                        # rnd_output0.c:378:63
	lui	a0, 4
	sub	a0, s0, a0
	lw	a1, 756(a0)                     # 4-byte Folded Reload
	lbu	a0, 627(a1)
	addi	a0, a0, 1
	sb	a0, 627(a1)
	.loc	2 378 21 is_stmt 0              # rnd_output0.c:378:21
	j	.LBB0_154
.Ltmp209:
.LBB0_165:                              #   in Loop: Header=BB0_147 Depth=3
	.loc	2 393 32 is_stmt 1              # rnd_output0.c:393:32
	lui	a0, 4
	sub	a0, s0, a0
	lw	a1, 736(a0)                     # 4-byte Folded Reload
	lw	a0, -24(s0)
	.loc	2 393 31 is_stmt 0              # rnd_output0.c:393:31
	lw	a0, 0(a0)
	.loc	2 393 28                        # rnd_output0.c:393:28
	sw	a0, 544(a1)
	.loc	2 394 17 is_stmt 1              # rnd_output0.c:394:17
	j	.LBB0_166
.Ltmp210:
.LBB0_166:                              #   in Loop: Header=BB0_147 Depth=3
	.loc	2 361 64                        # rnd_output0.c:361:64
	lui	a1, %hi(g_645)
	lw	a0, %lo(g_645)(a1)
	addi	a0, a0, 1
	sw	a0, %lo(g_645)(a1)
	.loc	2 361 17 is_stmt 0              # rnd_output0.c:361:17
	j	.LBB0_147
.Ltmp211:
.LBB0_167:                              #   in Loop: Header=BB0_133 Depth=2
	.loc	2 395 69 is_stmt 1              # rnd_output0.c:395:69
	lui	a0, 4
	sub	a0, s0, a0
	lw	a0, 736(a0)                     # 4-byte Folded Reload
	lui	a1, %hi(g_903)
	lw	a1, %lo(g_903)(a1)
	.loc	2 395 68 is_stmt 0              # rnd_output0.c:395:68
	lw	a1, 0(a1)
	.loc	2 395 67                        # rnd_output0.c:395:67
	lw	a1, 0(a1)
	.loc	2 395 63                        # rnd_output0.c:395:63
	snez	a1, a1
	.loc	2 395 110                       # rnd_output0.c:395:110
	lui	a2, 4
	sub	a2, s0, a2
	sw	a1, 484(a2)                     # 4-byte Folded Spill
	lw	a0, 572(a0)
	li	a1, 1
	.loc	2 395 113                       # rnd_output0.c:395:113
	lui	a2, 4
	sub	a2, s0, a2
	sw	a1, 488(a2)                     # 4-byte Folded Spill
	bnez	a0, .LBB0_171
	j	.LBB0_168
.LBB0_168:                              #   in Loop: Header=BB0_133 Depth=2
	.loc	2 395 191                       # rnd_output0.c:395:191
	lui	a0, 4
	sub	a0, s0, a0
	lw	a1, 756(a0)                     # 4-byte Folded Reload
	lui	a0, %hi(g_645)
	lw	a2, %lo(g_645)(a0)
	.loc	2 395 196                       # rnd_output0.c:395:196
	lui	a3, 4
	sub	a3, s0, a3
	sw	a2, 472(a3)                     # 4-byte Folded Spill
	lw	a2, -48(s0)
	.loc	2 395 220                       # rnd_output0.c:395:220
	lui	a3, 4
	sub	a3, s0, a3
	sw	a2, 476(a3)                     # 4-byte Folded Spill
	lw	a2, 560(a1)
	li	a1, 0
	.loc	2 395 228                       # rnd_output0.c:395:228
	sw	a1, 0(a2)
	.loc	2 395 262                       # rnd_output0.c:395:262
	lw	a0, %lo(g_645)(a0)
	li	a1, 1
	.loc	2 395 266                       # rnd_output0.c:395:266
	lui	a2, 4
	sub	a2, s0, a2
	sw	a1, 480(a2)                     # 4-byte Folded Spill
	bnez	a0, .LBB0_170
	j	.LBB0_169
.LBB0_169:                              #   in Loop: Header=BB0_133 Depth=2
	.loc	2 0 266                         # rnd_output0.c:0:266
	li	a0, 0
	.loc	2 395 266                       # rnd_output0.c:395:266
	lui	a1, 4
	sub	a1, s0, a1
	sw	a0, 480(a1)                     # 4-byte Folded Spill
	j	.LBB0_170
.LBB0_170:                              #   in Loop: Header=BB0_133 Depth=2
	.loc	2 0 266                         # rnd_output0.c:0:266
	lui	a0, 4
	sub	a0, s0, a0
	lw	a0, 472(a0)                     # 4-byte Folded Reload
	lui	a1, 4
	sub	a1, s0, a1
	lw	a1, 476(a1)                     # 4-byte Folded Reload
	lui	a2, 4
	sub	a2, s0, a2
	lw	a2, 480(a2)                     # 4-byte Folded Reload
	.loc	2 395 266                       # rnd_output0.c:395:266
	andi	a2, a2, 1
	lui	a3, 5
	addi	a3, a3, -662
	.loc	2 395 212                       # rnd_output0.c:395:212
	or	a2, a2, a3
	.loc	2 395 201                       # rnd_output0.c:395:201
	xor	a1, a1, a2
	.loc	2 395 155                       # rnd_output0.c:395:155
	slli	a0, a0, 16
	srli	a0, a0, 16
	call	safe_lshift_func_uint16_t_u_u
	li	a0, 255
	.loc	2 395 117                       # rnd_output0.c:395:117
	call	safe_unary_minus_func_uint8_t_u
	.loc	2 395 113                       # rnd_output0.c:395:113
	snez	a0, a0
	lui	a1, 4
	sub	a1, s0, a1
	sw	a0, 488(a1)                     # 4-byte Folded Spill
	j	.LBB0_171
.LBB0_171:                              #   in Loop: Header=BB0_133 Depth=2
	.loc	2 0 113                         # rnd_output0.c:0:113
	lui	a0, 4
	sub	a0, s0, a0
	lw	a0, 484(a0)                     # 4-byte Folded Reload
	lui	a1, 4
	sub	a1, s0, a1
	lw	a1, 488(a1)                     # 4-byte Folded Reload
	.loc	2 395 113                       # rnd_output0.c:395:113
	andi	a1, a1, 1
	.loc	2 395 27                        # rnd_output0.c:395:27
	andi	a0, a0, 255
	call	safe_mul_func_uint8_t_u_u
	li	a1, 1
	.loc	2 395 300                       # rnd_output0.c:395:300
	lui	a2, 4
	sub	a2, s0, a2
	sw	a1, 468(a2)                     # 4-byte Folded Spill
	bnez	a0, .LBB0_173
	j	.LBB0_172
.LBB0_172:                              #   in Loop: Header=BB0_133 Depth=2
	.loc	2 395 305                       # rnd_output0.c:395:305
	lui	a0, 4
	sub	a0, s0, a0
	lw	a0, 736(a0)                     # 4-byte Folded Reload
	lw	a0, 660(a0)
	.loc	2 395 304                       # rnd_output0.c:395:304
	lw	a0, 0(a0)
	.loc	2 395 300                       # rnd_output0.c:395:300
	snez	a0, a0
	lui	a1, 4
	sub	a1, s0, a1
	sw	a0, 468(a1)                     # 4-byte Folded Spill
	j	.LBB0_173
.LBB0_173:                              #   in Loop: Header=BB0_133 Depth=2
	.loc	2 0 300                         # rnd_output0.c:0:300
	lui	a0, 4
	sub	a0, s0, a0
	lw	a1, 736(a0)                     # 4-byte Folded Reload
	lui	a0, 4
	sub	a0, s0, a0
	lw	a0, 468(a0)                     # 4-byte Folded Reload
	.loc	2 395 323                       # rnd_output0.c:395:323
	lw	a1, 568(a1)
	.loc	2 395 300                       # rnd_output0.c:395:300
	and	a0, a0, a1
	.loc	2 395 314                       # rnd_output0.c:395:314
	andi	a0, a0, 1
	.loc	2 395 22                        # rnd_output0.c:395:22
	sw	a0, -44(s0)
	j	.LBB0_174
.Ltmp212:
.LBB0_174:                              #   in Loop: Header=BB0_133 Depth=2
	.loc	2 397 24 is_stmt 1              # rnd_output0.c:397:24
	lui	a0, 4
	sub	a0, s0, a0
	lw	a0, 736(a0)                     # 4-byte Folded Reload
	lw	a0, 1404(a0)
	.loc	2 397 15 is_stmt 0              # rnd_output0.c:397:15
	lw	a1, -652(s0)
	.loc	2 397 22                        # rnd_output0.c:397:22
	sw	a0, 0(a1)
.Ltmp213:
	.loc	2 398 19 is_stmt 1              # rnd_output0.c:398:19
	lw	a0, -24(s0)
	.loc	2 398 18 is_stmt 0              # rnd_output0.c:398:18
	lw	a0, 0(a0)
.Ltmp214:
	.loc	2 398 17                        # rnd_output0.c:398:17
	beqz	a0, .LBB0_176
	j	.LBB0_175
.LBB0_175:                              #   in Loop: Header=BB0_132 Depth=1
.Ltmp215:
	.loc	2 399 17 is_stmt 1              # rnd_output0.c:399:17
	j	.LBB0_178
.Ltmp216:
.LBB0_176:                              #   in Loop: Header=BB0_133 Depth=2
	.loc	2 400 9                         # rnd_output0.c:400:9
	j	.LBB0_177
.Ltmp217:
.LBB0_177:                              #   in Loop: Header=BB0_133 Depth=2
	.loc	2 324 81                        # rnd_output0.c:324:81
	lui	a0, %hi(g_1000)
	lui	a1, 4
	sub	a1, s0, a1
	sw	a0, 464(a1)                     # 4-byte Folded Spill
	lw	a0, %lo(g_1000)(a0)
	srai	a1, a0, 31
	li	a2, 3
	li	a3, 0
	.loc	2 324 55 is_stmt 0              # rnd_output0.c:324:55
	call	safe_add_func_int64_t_s_s
                                        # kill: def $x12 killed $x11
	.loc	2 324 53                        # rnd_output0.c:324:53
	lui	a1, 4
	sub	a1, s0, a1
	lw	a1, 464(a1)                     # 4-byte Folded Reload
	sw	a0, %lo(g_1000)(a1)
	.loc	2 324 9                         # rnd_output0.c:324:9
	j	.LBB0_133
.Ltmp218:
.LBB0_178:                              #   in Loop: Header=BB0_132 Depth=1
	.loc	2 0 9                           # rnd_output0.c:0:9
	lui	a0, 4
	sub	a0, s0, a0
	lw	a1, 756(a0)                     # 4-byte Folded Reload
	li	a0, 0
.Ltmp219:
	.loc	2 401 24 is_stmt 1              # rnd_output0.c:401:24
	sb	a0, 564(a1)
	.loc	2 401 14 is_stmt 0              # rnd_output0.c:401:14
	j	.LBB0_179
.LBB0_179:                              #   Parent Loop BB0_132 Depth=1
                                        # =>  This Loop Header: Depth=2
                                        #       Child Loop BB0_181 Depth 3
                                        #       Child Loop BB0_187 Depth 3
.Ltmp220:
	.loc	2 401 37                        # rnd_output0.c:401:37
	lui	a0, 4
	sub	a0, s0, a0
	lw	a0, 756(a0)                     # 4-byte Folded Reload
	lb	a0, 564(a0)
.Ltmp221:
	.loc	2 401 9                         # rnd_output0.c:401:9
	beqz	a0, .LBB0_199
	j	.LBB0_180
.LBB0_180:                              #   in Loop: Header=BB0_179 Depth=2
	.loc	2 0 9                           # rnd_output0.c:0:9
	lui	a0, 4
	sub	a0, s0, a0
	lw	a1, 740(a0)                     # 4-byte Folded Reload
	lui	a0, 4
	sub	a0, s0, a0
	lw	a2, 736(a0)                     # 4-byte Folded Reload
	lui	a0, 2
	addi	a0, a0, -692
	sub	a0, s0, a0
.Ltmp222:
	.loc	2 404 57 is_stmt 1              # rnd_output0.c:404:57
	lui	a3, 4
	sub	a3, s0, a3
	sw	a0, 420(a3)                     # 4-byte Folded Spill
	sw	a0, 380(a2)
	.loc	2 404 70 is_stmt 0              # rnd_output0.c:404:70
	sw	a0, 384(a2)
	.loc	2 404 83                        # rnd_output0.c:404:83
	sw	a0, 388(a2)
	.loc	2 404 96                        # rnd_output0.c:404:96
	sw	a0, 392(a2)
	.loc	2 404 109                       # rnd_output0.c:404:109
	sw	a0, 396(a2)
	.loc	2 404 122                       # rnd_output0.c:404:122
	sw	a0, 400(a2)
	.loc	2 404 137                       # rnd_output0.c:404:137
	sw	a0, 404(a2)
	.loc	2 404 150                       # rnd_output0.c:404:150
	sw	a0, 408(a2)
	.loc	2 404 163                       # rnd_output0.c:404:163
	sw	a0, 412(a2)
	.loc	2 404 176                       # rnd_output0.c:404:176
	sw	a0, 416(a2)
	.loc	2 404 189                       # rnd_output0.c:404:189
	sw	a0, 420(a2)
	.loc	2 404 202                       # rnd_output0.c:404:202
	sw	a0, 424(a2)
	.loc	2 404 217                       # rnd_output0.c:404:217
	sw	a0, 428(a2)
	.loc	2 404 230                       # rnd_output0.c:404:230
	sw	a0, 432(a2)
	.loc	2 404 243                       # rnd_output0.c:404:243
	sw	a0, 436(a2)
	.loc	2 404 256                       # rnd_output0.c:404:256
	sw	a0, 440(a2)
	.loc	2 404 269                       # rnd_output0.c:404:269
	sw	a0, 444(a2)
	.loc	2 404 282                       # rnd_output0.c:404:282
	sw	a0, 448(a2)
	.loc	2 404 297                       # rnd_output0.c:404:297
	sw	a0, 452(a2)
	.loc	2 404 310                       # rnd_output0.c:404:310
	sw	a0, 456(a2)
	.loc	2 404 323                       # rnd_output0.c:404:323
	sw	a0, 460(a2)
	.loc	2 404 336                       # rnd_output0.c:404:336
	sw	a0, 464(a2)
	.loc	2 404 349                       # rnd_output0.c:404:349
	sw	a0, 468(a2)
	.loc	2 404 362                       # rnd_output0.c:404:362
	sw	a0, 472(a2)
	li	a7, 0
	.loc	2 405 22 is_stmt 1              # rnd_output0.c:405:22
	lui	a0, 4
	sub	a0, s0, a0
	sw	a7, 460(a0)                     # 4-byte Folded Spill
	sw	a7, 372(a2)
	sw	a7, 368(a2)
	lui	a0, 640220
	addi	a0, a0, 2021
	sw	a0, 364(a2)
	li	a0, 1
	sw	a0, 360(a2)
	li	a0, -1
	.loc	2 406 21                        # rnd_output0.c:406:21
	sw	a0, 356(a2)
	lui	a0, 851453
	addi	a0, a0, 881
	.loc	2 407 21                        # rnd_output0.c:407:21
	sw	a0, 352(a2)
	.loc	2 408 49                        # rnd_output0.c:408:49
	lui	a0, %hi(g_147)
	addi	a6, a0, %lo(g_147)
	lui	a0, 4
	sub	a0, s0, a0
	sw	a6, 424(a0)                     # 4-byte Folded Spill
	sw	a6, 1840(a1)
	lui	a0, %hi(g_8)
	addi	s1, a0, %lo(g_8)
	addi	t6, s1, 480
	sw	t6, 1844(a1)
	lui	a0, 2
	addi	a0, a0, -576
	sub	t3, s0, a0
	lui	a0, 4
	sub	a0, s0, a0
	sw	t3, 428(a0)                     # 4-byte Folded Spill
	sw	t3, 1848(a1)
	lui	a0, %hi(g_13)
	addi	a0, a0, %lo(g_13)
	lui	a3, 4
	sub	a3, s0, a3
	sw	a0, 432(a3)                     # 4-byte Folded Spill
	sw	a0, 1852(a1)
	sw	t3, 1856(a1)
	sw	a0, 1860(a1)
	sw	a6, 1864(a1)
	sw	a6, 1868(a1)
	sw	a0, 1872(a1)
	sw	t3, 1876(a1)
	lui	a3, 2
	addi	a3, a3, -572
	sub	t4, s0, a3
	.loc	2 408 164 is_stmt 0             # rnd_output0.c:408:164
	lui	a3, 4
	sub	a3, s0, a3
	sw	t4, 436(a3)                     # 4-byte Folded Spill
	sw	t4, 1880(a1)
	lui	a3, %hi(g_556)
	addi	a4, a3, %lo(g_556)
	lui	a3, 4
	sub	a3, s0, a3
	sw	a4, 440(a3)                     # 4-byte Folded Spill
	sw	a4, 1884(a1)
	sw	a4, 1888(a1)
	sw	t4, 1892(a1)
	addi	a3, s0, -2048
	addi	a3, a3, -884
	lui	a5, 4
	sub	a5, s0, a5
	sw	a3, 444(a5)                     # 4-byte Folded Spill
	sw	a3, 1896(a1)
	lui	a5, 2
	addi	a5, a5, -568
	sub	t0, s0, a5
	sw	t0, 1900(a1)
	lui	a5, %hi(g_589)
	addi	t1, a5, %lo(g_589)
	sw	t1, 1904(a1)
	lui	a5, %hi(g_333)
	addi	t2, a5, %lo(g_333)
	lui	a5, 4
	sub	a5, s0, a5
	sw	t2, 448(a5)                     # 4-byte Folded Spill
	sw	t2, 1908(a1)
	sw	t2, 1912(a1)
	.loc	2 408 239                       # rnd_output0.c:408:239
	addi	a5, s0, -960
	.loc	2 408 164                       # rnd_output0.c:408:164
	lui	t5, 4
	sub	t5, s0, t5
	sw	a5, 452(t5)                     # 4-byte Folded Spill
	sw	a5, 1916(a1)
	.loc	2 408 255                       # rnd_output0.c:408:255
	sw	t6, 1920(a1)
	sw	a7, 1924(a1)
	sw	t4, 1928(a1)
	addi	t5, s0, -432
	sw	t5, 1932(a1)
	sw	a0, 1936(a1)
	sw	a5, 1940(a1)
	sw	a4, 1944(a1)
	sw	t1, 1948(a1)
	sw	t2, 1952(a1)
	sw	t4, 1956(a1)
	.loc	2 408 352                       # rnd_output0.c:408:352
	sw	t4, 1960(a1)
	sw	t3, 1964(a1)
	sw	t2, 1968(a1)
	sw	t4, 1972(a1)
	lui	t1, %hi(g_3)
	addi	t1, t1, %lo(g_3)
	lui	ra, 4
	sub	ra, s0, ra
	sw	t1, 456(ra)                     # 4-byte Folded Spill
	sw	t1, 1976(a1)
	sw	a6, 1980(a1)
	sw	a0, 1984(a1)
	sw	a0, 1988(a1)
	sw	a0, 1992(a1)
	sw	a6, 1996(a1)
	.loc	2 408 440                       # rnd_output0.c:408:440
	sw	a4, 2000(a1)
	sw	a0, 2004(a1)
	sw	a6, 2008(a1)
	sw	a0, 2012(a1)
	sw	a4, 2016(a1)
	sw	t3, 2020(a1)
	sw	t0, 2024(a1)
	sw	a6, 2028(a1)
	sw	t3, 2032(a1)
	sw	t5, 2036(a1)
	.loc	2 408 546                       # rnd_output0.c:408:546
	sw	t1, 2040(a1)
	addi	s1, s1, 252
	sw	s1, 2044(a1)
	sw	a7, 0(a2)
	sw	t2, 4(a2)
	sw	t0, 8(a2)
	sw	a6, 12(a2)
	sw	a5, 16(a2)
	sw	t3, 20(a2)
	sw	t3, 24(a2)
	sw	t5, 28(a2)
	.loc	2 408 658                       # rnd_output0.c:408:658
	sw	a5, 32(a2)
	sw	t2, 36(a2)
	sw	a0, 40(a2)
	sw	a3, 44(a2)
	sw	a4, 48(a2)
	sw	a5, 52(a2)
	sw	a6, 56(a2)
	sw	a7, 60(a2)
	sw	a7, 64(a2)
	sw	a6, 68(a2)
	.loc	2 408 769                       # rnd_output0.c:408:769
	sw	t2, 72(a2)
	sw	t1, 76(a2)
	lui	t0, 2
	addi	t0, t0, -1600
	sub	t0, s0, t0
	sw	t0, 80(a2)
	sw	t0, 84(a2)
	sw	t1, 88(a2)
	sw	t2, 92(a2)
	sw	t3, 96(a2)
	sw	a5, 100(a2)
	sw	a7, 104(a2)
	sw	t4, 108(a2)
	.loc	2 408 864                       # rnd_output0.c:408:864
	sw	a7, 112(a2)
	sw	t0, 116(a2)
	sw	a3, 120(a2)
	sw	a6, 124(a2)
	sw	a0, 128(a2)
	sw	t2, 132(a2)
	sw	a6, 136(a2)
	sw	t5, 140(a2)
	sw	t1, 144(a2)
	sw	a5, 148(a2)
	.loc	2 408 964                       # rnd_output0.c:408:964
	sw	a7, 152(a2)
	sw	a3, 156(a2)
	sw	t1, 160(a2)
	sw	t6, 164(a2)
	sw	a3, 168(a2)
	sw	t2, 172(a2)
	sw	a5, 176(a2)
	sw	t3, 180(a2)
	sw	a6, 184(a2)
	sw	t3, 188(a2)
	.loc	2 408 1074                      # rnd_output0.c:408:1074
	sw	t2, 192(a2)
	sw	a5, 196(a2)
	sw	t3, 200(a2)
	sw	a6, 204(a2)
	sw	t3, 208(a2)
	sw	a5, 212(a2)
	sw	t2, 216(a2)
	sw	a3, 220(a2)
	sw	t6, 224(a2)
	sw	t1, 228(a2)
	.loc	2 408 1190                      # rnd_output0.c:408:1190
	sw	a5, 232(a2)
	sw	a0, 236(a2)
	sw	a5, 240(a2)
	sw	t1, 244(a2)
	sw	t5, 248(a2)
	sw	a6, 252(a2)
	sw	t2, 256(a2)
	sw	a0, 260(a2)
	sw	a6, 264(a2)
	sw	a3, 268(a2)
	.loc	2 408 1292                      # rnd_output0.c:408:1292
	sw	t1, 272(a2)
	sw	a0, 276(a2)
	sw	t4, 280(a2)
	sw	a7, 284(a2)
	sw	a5, 288(a2)
	sw	t3, 292(a2)
	sw	t2, 296(a2)
	sw	t1, 300(a2)
	sw	t0, 304(a2)
	sw	t0, 308(a2)
	.loc	2 408 1386                      # rnd_output0.c:408:1386
	sw	a4, 312(a2)
	sw	a5, 316(a2)
	sw	a6, 320(a2)
	sw	a7, 324(a2)
	sw	a7, 328(a2)
	sw	a6, 332(a2)
	sw	a5, 336(a2)
	sw	a4, 340(a2)
	sw	a3, 344(a2)
	sw	a0, 348(a2)
	lui	a0, 4
	addi	a0, a0, -1943
	.loc	2 409 22 is_stmt 1              # rnd_output0.c:409:22
	sh	a0, 1838(a1)
	li	a0, 6
	.loc	2 410 20                        # rnd_output0.c:410:20
	sb	a0, 1837(a1)
	lui	a0, 880040
	addi	a0, a0, 286
	.loc	2 411 21                        # rnd_output0.c:411:21
	sw	a0, 1832(a1)
	lui	a0, 623604
	addi	a0, a0, 1721
	.loc	2 412 21                        # rnd_output0.c:412:21
	sw	a0, 1828(a1)
	.loc	2 413 21                        # rnd_output0.c:413:21
	lui	a0, %hi(.L__const.func_40.l_1433)
	addi	a1, a0, %lo(.L__const.func_40.l_1433)
	lui	a0, 2
	addi	a0, a0, 220
	sub	a0, s0, a0
	li	a2, 216
	call	memcpy@plt
	.loc	2 414 24                        # rnd_output0.c:414:24
	lui	a0, %hi(.L__const.func_40.l_1437)
	addi	a1, a0, %lo(.L__const.func_40.l_1437)
	lui	a0, 2
	addi	a0, a0, 340
	sub	a0, s0, a0
	li	a2, 120
	call	memcpy@plt
	.loc	2 415 22                        # rnd_output0.c:415:22
	lui	a0, %hi(.L__const.func_40.l_1516)
	addi	a1, a0, %lo(.L__const.func_40.l_1516)
	lui	a0, 2
	addi	a0, a0, 468
	sub	a0, s0, a0
	li	a2, 128
	call	memcpy@plt
	lui	a1, 4
	sub	a1, s0, a1
	lw	a1, 740(a1)                     # 4-byte Folded Reload
                                        # kill: def $x12 killed $x10
.Ltmp223:
	.loc	2 417 20                        # rnd_output0.c:417:20
	lui	a0, 4
	sub	a0, s0, a0
	lw	a0, 460(a0)                     # 4-byte Folded Reload
	sw	a0, 1360(a1)
	.loc	2 417 18 is_stmt 0              # rnd_output0.c:417:18
	j	.LBB0_181
.LBB0_181:                              #   Parent Loop BB0_132 Depth=1
                                        #     Parent Loop BB0_179 Depth=2
                                        # =>    This Inner Loop Header: Depth=3
.Ltmp224:
	.loc	2 417 25                        # rnd_output0.c:417:25
	lui	a0, 4
	sub	a0, s0, a0
	lw	a0, 740(a0)                     # 4-byte Folded Reload
	lw	a1, 1360(a0)
	li	a0, 0
.Ltmp225:
	.loc	2 417 13                        # rnd_output0.c:417:13
	blt	a0, a1, .LBB0_184
	j	.LBB0_182
.LBB0_182:                              #   in Loop: Header=BB0_181 Depth=3
.Ltmp226:
	.loc	2 418 24 is_stmt 1              # rnd_output0.c:418:24
	lui	a0, 4
	sub	a0, s0, a0
	lw	a0, 740(a0)                     # 4-byte Folded Reload
	lw	a0, 1360(a0)
	.loc	2 418 17 is_stmt 0              # rnd_output0.c:418:17
	slli	a1, a0, 2
	lui	a0, 2
	addi	a0, a0, -692
	sub	a0, s0, a0
	add	a1, a1, a0
	.loc	2 418 27                        # rnd_output0.c:418:27
	lui	a0, %hi(g_294)
	addi	a0, a0, %lo(g_294)
	sw	a0, 0(a1)
	.loc	2 418 17                        # rnd_output0.c:418:17
	j	.LBB0_183
.LBB0_183:                              #   in Loop: Header=BB0_181 Depth=3
	.loc	2 417 33 is_stmt 1              # rnd_output0.c:417:33
	lui	a0, 4
	sub	a0, s0, a0
	lw	a1, 740(a0)                     # 4-byte Folded Reload
	lw	a0, 1360(a1)
	addi	a0, a0, 1
	sw	a0, 1360(a1)
	.loc	2 417 13 is_stmt 0              # rnd_output0.c:417:13
	j	.LBB0_181
.Ltmp227:
.LBB0_184:                              #   in Loop: Header=BB0_179 Depth=2
	.loc	2 419 17 is_stmt 1              # rnd_output0.c:419:17
	lui	a0, %hi(g_388)
	lhu	a0, %lo(g_388)(a0)
.Ltmp228:
	.loc	2 419 17 is_stmt 0              # rnd_output0.c:419:17
	beqz	a0, .LBB0_186
	j	.LBB0_185
.LBB0_185:                              #   in Loop: Header=BB0_132 Depth=1
.Ltmp229:
	.loc	2 420 17 is_stmt 1              # rnd_output0.c:420:17
	j	.LBB0_132
.Ltmp230:
.LBB0_186:                              #   in Loop: Header=BB0_179 Depth=2
	.loc	2 421 24                        # rnd_output0.c:421:24
	lui	a1, %hi(g_117)
	li	a0, -16
	sw	a0, %lo(g_117)(a1)
	.loc	2 421 18 is_stmt 0              # rnd_output0.c:421:18
	j	.LBB0_187
.LBB0_187:                              #   Parent Loop BB0_132 Depth=1
                                        #     Parent Loop BB0_179 Depth=2
                                        # =>    This Inner Loop Header: Depth=3
.Ltmp231:
	.loc	2 421 34                        # rnd_output0.c:421:34
	lui	a0, %hi(g_117)
	lw	a0, %lo(g_117)(a0)
	li	a1, 43
.Ltmp232:
	.loc	2 421 13                        # rnd_output0.c:421:13
	bltu	a0, a1, .LBB0_190
	j	.LBB0_188
.LBB0_188:                              #   in Loop: Header=BB0_187 Depth=3
.Ltmp233:
	.loc	2 423 48 is_stmt 1              # rnd_output0.c:423:48
	lui	a0, 4
	sub	a0, s0, a0
	lw	a1, 740(a0)                     # 4-byte Folded Reload
	lui	a0, %hi(.Lconstinit)
	lw	a2, %lo(.Lconstinit)(a0)
	sw	a2, 680(a1)
	addi	a0, a0, %lo(.Lconstinit)
	lw	a2, 20(a0)
	sw	a2, 700(a1)
	lw	a2, 16(a0)
	sw	a2, 696(a1)
	lw	a2, 12(a0)
	sw	a2, 692(a1)
	lw	a2, 8(a0)
	sw	a2, 688(a1)
	lw	a0, 4(a0)
	sw	a0, 684(a1)
	.loc	2 423 120 is_stmt 0             # rnd_output0.c:423:120
	lui	a0, %hi(.Lconstinit.1)
	addi	a2, a0, %lo(.Lconstinit.1)
	lw	a3, 20(a2)
	sw	a3, 724(a1)
	lw	a3, 16(a2)
	sw	a3, 720(a1)
	lw	a3, 12(a2)
	sw	a3, 716(a1)
	lw	a3, 8(a2)
	sw	a3, 712(a1)
	lw	a2, 4(a2)
	sw	a2, 708(a1)
	lw	a0, %lo(.Lconstinit.1)(a0)
	sw	a0, 704(a1)
	.loc	2 423 186                       # rnd_output0.c:423:186
	lui	a0, %hi(g_467)
	addi	t0, a0, %lo(g_467)
	lui	a0, 4
	sub	a0, s0, a0
	sw	t0, 388(a0)                     # 4-byte Folded Spill
	addi	a5, t0, 8
	lui	a0, 4
	sub	a0, s0, a0
	sw	a5, 392(a0)                     # 4-byte Folded Spill
	sw	a5, 728(a1)
	addi	a4, t0, 4
	lui	a0, 4
	sub	a0, s0, a0
	sw	a4, 396(a0)                     # 4-byte Folded Spill
	sw	a4, 732(a1)
	sw	t0, 736(a1)
	addi	a3, s0, -64
	lui	a0, 4
	sub	a0, s0, a0
	sw	a3, 400(a0)                     # 4-byte Folded Spill
	sw	a3, 740(a1)
	addi	a2, t0, 12
	lui	a0, 4
	sub	a0, s0, a0
	sw	a2, 404(a0)                     # 4-byte Folded Spill
	sw	a2, 744(a1)
	sw	a2, 748(a1)
	.loc	2 423 260                       # rnd_output0.c:423:260
	sw	a3, 752(a1)
	lui	a0, %hi(g_71)
	addi	a6, a0, %lo(g_71)
	lui	a0, 4
	sub	a0, s0, a0
	sw	a6, 408(a0)                     # 4-byte Folded Spill
	sw	a6, 756(a1)
	sw	a6, 760(a1)
	sw	a6, 764(a1)
	addi	t1, t0, 20
	sw	t1, 768(a1)
	sw	a2, 772(a1)
	.loc	2 423 315                       # rnd_output0.c:423:315
	sw	a6, 776(a1)
	li	a0, 0
	lui	a7, 4
	sub	a7, s0, a7
	sw	a0, 416(a7)                     # 4-byte Folded Spill
	sw	a0, 780(a1)
	sw	a4, 784(a1)
	sw	a3, 788(a1)
	sw	a5, 792(a1)
	addi	a7, t0, 24
	lui	t2, 4
	sub	t2, s0, t2
	sw	a7, 412(t2)                     # 4-byte Folded Spill
	sw	a7, 796(a1)
	.loc	2 423 378                       # rnd_output0.c:423:378
	sw	a2, 800(a1)
	sw	a3, 804(a1)
	sw	a4, 808(a1)
	sw	a4, 812(a1)
	sw	a3, 816(a1)
	sw	a2, 820(a1)
	.loc	2 423 446                       # rnd_output0.c:423:446
	lui	t2, %hi(.Lconstinit.2)
	addi	t3, t2, %lo(.Lconstinit.2)
	lw	t4, 20(t3)
	sw	t4, 844(a1)
	lw	t4, 16(t3)
	sw	t4, 840(a1)
	lw	t4, 12(t3)
	sw	t4, 836(a1)
	lw	t4, 8(t3)
	sw	t4, 832(a1)
	lw	t3, 4(t3)
	sw	t3, 828(a1)
	lw	t2, %lo(.Lconstinit.2)(t2)
	sw	t2, 824(a1)
	.loc	2 423 512                       # rnd_output0.c:423:512
	sw	a3, 848(a1)
	sw	a3, 852(a1)
	sw	t0, 856(a1)
	sw	a6, 860(a1)
	sw	a2, 864(a1)
	sw	a5, 868(a1)
	.loc	2 423 575                       # rnd_output0.c:423:575
	sw	a3, 872(a1)
	sw	a0, 876(a1)
	sw	a6, 880(a1)
	sw	a2, 884(a1)
	sw	a7, 888(a1)
	sw	a7, 892(a1)
	.loc	2 423 638                       # rnd_output0.c:423:638
	sw	a7, 896(a1)
	sw	a6, 900(a1)
	sw	a0, 904(a1)
	sw	a4, 908(a1)
	sw	a3, 912(a1)
	sw	a5, 916(a1)
	.loc	2 423 701                       # rnd_output0.c:423:701
	sw	a2, 920(a1)
	sw	a4, 924(a1)
	sw	a2, 928(a1)
	sw	a3, 932(a1)
	sw	a3, 936(a1)
	sw	a2, 940(a1)
	.loc	2 423 769                       # rnd_output0.c:423:769
	lui	t2, %hi(.Lconstinit.3)
	addi	t3, t2, %lo(.Lconstinit.3)
	lw	t4, 20(t3)
	sw	t4, 964(a1)
	lw	t4, 16(t3)
	sw	t4, 960(a1)
	lw	t4, 12(t3)
	sw	t4, 956(a1)
	lw	t4, 8(t3)
	sw	t4, 952(a1)
	lw	t3, 4(t3)
	sw	t3, 948(a1)
	lw	t2, %lo(.Lconstinit.3)(t2)
	sw	t2, 944(a1)
	.loc	2 423 830                       # rnd_output0.c:423:830
	sw	a3, 968(a1)
	sw	a0, 972(a1)
	sw	a2, 976(a1)
	sw	a3, 980(a1)
	sw	a2, 984(a1)
	sw	a7, 988(a1)
	.loc	2 423 894                       # rnd_output0.c:423:894
	sw	a5, 992(a1)
	sw	a3, 996(a1)
	sw	a2, 1000(a1)
	sw	a4, 1004(a1)
	sw	a6, 1008(a1)
	sw	a2, 1012(a1)
	.loc	2 423 961                       # rnd_output0.c:423:961
	sw	t1, 1016(a1)
	sw	a4, 1020(a1)
	sw	a7, 1024(a1)
	sw	a2, 1028(a1)
	sw	a3, 1032(a1)
	sw	a2, 1036(a1)
	.loc	2 423 1035                      # rnd_output0.c:423:1035
	sw	a2, 1040(a1)
	sw	a3, 1044(a1)
	sw	a2, 1048(a1)
	sw	a6, 1052(a1)
	sw	a5, 1056(a1)
	sw	a5, 1060(a1)
	.loc	2 423 1104                      # rnd_output0.c:423:1104
	lui	t2, %hi(.Lconstinit.4)
	addi	t3, t2, %lo(.Lconstinit.4)
	lw	t4, 20(t3)
	sw	t4, 1084(a1)
	lw	t4, 16(t3)
	sw	t4, 1080(a1)
	lw	t4, 12(t3)
	sw	t4, 1076(a1)
	lw	t4, 8(t3)
	sw	t4, 1072(a1)
	lw	t3, 4(t3)
	sw	t3, 1068(a1)
	lw	t2, %lo(.Lconstinit.4)(t2)
	sw	t2, 1064(a1)
	.loc	2 423 1176                      # rnd_output0.c:423:1176
	lui	t2, %hi(.Lconstinit.5)
	addi	t3, t2, %lo(.Lconstinit.5)
	lw	t4, 20(t3)
	sw	t4, 1108(a1)
	lw	t4, 16(t3)
	sw	t4, 1104(a1)
	lw	t4, 12(t3)
	sw	t4, 1100(a1)
	lw	t4, 8(t3)
	sw	t4, 1096(a1)
	lw	t3, 4(t3)
	sw	t3, 1092(a1)
	lw	t2, %lo(.Lconstinit.5)(t2)
	sw	t2, 1088(a1)
	.loc	2 423 1242                      # rnd_output0.c:423:1242
	sw	a5, 1112(a1)
	sw	a4, 1116(a1)
	sw	t0, 1120(a1)
	sw	a3, 1124(a1)
	sw	a2, 1128(a1)
	sw	a2, 1132(a1)
	.loc	2 423 1316                      # rnd_output0.c:423:1316
	sw	a3, 1136(a1)
	sw	a6, 1140(a1)
	sw	a6, 1144(a1)
	sw	a6, 1148(a1)
	sw	t1, 1152(a1)
	sw	a2, 1156(a1)
	.loc	2 423 1371                      # rnd_output0.c:423:1371
	sw	a6, 1160(a1)
	sw	a0, 1164(a1)
	sw	a4, 1168(a1)
	sw	a3, 1172(a1)
	sw	a5, 1176(a1)
	sw	a7, 1180(a1)
	.loc	2 423 1434                      # rnd_output0.c:423:1434
	sw	a2, 1184(a1)
	sw	a3, 1188(a1)
	sw	a4, 1192(a1)
	sw	a4, 1196(a1)
	sw	a3, 1200(a1)
	sw	a2, 1204(a1)
	.loc	2 423 1502                      # rnd_output0.c:423:1502
	lui	t1, %hi(.Lconstinit.6)
	addi	t2, t1, %lo(.Lconstinit.6)
	lw	t3, 20(t2)
	sw	t3, 1228(a1)
	lw	t3, 16(t2)
	sw	t3, 1224(a1)
	lw	t3, 12(t2)
	sw	t3, 1220(a1)
	lw	t3, 8(t2)
	sw	t3, 1216(a1)
	lw	t2, 4(t2)
	sw	t2, 1212(a1)
	lw	t1, %lo(.Lconstinit.6)(t1)
	sw	t1, 1208(a1)
	.loc	2 423 1568                      # rnd_output0.c:423:1568
	sw	a3, 1232(a1)
	sw	a3, 1236(a1)
	sw	t0, 1240(a1)
	sw	a6, 1244(a1)
	sw	a2, 1248(a1)
	sw	a5, 1252(a1)
	.loc	2 423 1631                      # rnd_output0.c:423:1631
	sw	a3, 1256(a1)
	sw	a0, 1260(a1)
	sw	a6, 1264(a1)
	sw	a2, 1268(a1)
	sw	a7, 1272(a1)
	sw	a7, 1276(a1)
	.loc	2 423 1694                      # rnd_output0.c:423:1694
	sw	a7, 1280(a1)
	sw	a6, 1284(a1)
	sw	a0, 1288(a1)
	sw	a4, 1292(a1)
	sw	a3, 1296(a1)
	sw	a5, 1300(a1)
	.loc	2 423 1757                      # rnd_output0.c:423:1757
	sw	a2, 1304(a1)
	sw	a4, 1308(a1)
	sw	a2, 1312(a1)
	sw	a3, 1316(a1)
	sw	a3, 1320(a1)
	sw	a2, 1324(a1)
	.loc	2 423 1825                      # rnd_output0.c:423:1825
	lui	a2, %hi(.Lconstinit.7)
	addi	a3, a2, %lo(.Lconstinit.7)
	lw	a4, 20(a3)
	sw	a4, 1348(a1)
	lw	a4, 16(a3)
	sw	a4, 1344(a1)
	lw	a4, 12(a3)
	sw	a4, 1340(a1)
	lw	a4, 8(a3)
	sw	a4, 1336(a1)
	lw	a3, 4(a3)
	sw	a3, 1332(a1)
	lw	a2, %lo(.Lconstinit.7)(a2)
	sw	a2, 1328(a1)
	lui	a2, 12
	addi	a2, a2, -242
	.loc	2 424 26 is_stmt 1              # rnd_output0.c:424:26
	sh	a2, 678(a1)
	.loc	2 425 26                        # rnd_output0.c:425:26
	lui	a2, %hi(g_70)
	addi	a2, a2, %lo(g_70)
	addi	a2, a2, 80
	sw	a2, 672(a1)
	.loc	2 426 27                        # rnd_output0.c:426:27
	sw	a0, 660(a1)
	sw	a0, 656(a1)
	lui	a0, 381712
	addi	a0, a0, -19
	sw	a0, 652(a1)
	li	a0, 9
	sw	a0, 648(a1)
	.loc	2 427 25                        # rnd_output0.c:427:25
	lui	a0, %hi(.L__const.func_40.l_1431)
	addi	a1, a0, %lo(.L__const.func_40.l_1431)
	lui	a0, 2
	addi	a0, a0, 1604
	sub	a0, s0, a0
	li	a2, 420
	call	memcpy@plt
	lui	a1, 4
	sub	a1, s0, a1
	lw	a1, 740(a1)                     # 4-byte Folded Reload
                                        # kill: def $x12 killed $x10
	lui	a0, 4
	sub	a0, s0, a0
	lw	a0, 416(a0)                     # 4-byte Folded Reload
	lui	a2, 2
	addi	a2, a2, -1843
	.loc	2 428 26                        # rnd_output0.c:428:26
	sh	a2, 226(a1)
	li	a2, -4
	.loc	2 429 25                        # rnd_output0.c:429:25
	sh	a2, 224(a1)
	.loc	2 430 28                        # rnd_output0.c:430:28
	sw	a0, 220(a1)
	.loc	2 431 25                        # rnd_output0.c:431:25
	lui	a0, %hi(g_197)
	addi	a0, a0, %lo(g_197)
	addi	a0, a0, 19
	sw	a0, 216(a1)
	.loc	2 433 13                        # rnd_output0.c:433:13
	j	.LBB0_189
.Ltmp234:
.LBB0_189:                              #   in Loop: Header=BB0_187 Depth=3
	.loc	2 421 48                        # rnd_output0.c:421:48
	lui	a1, %hi(g_117)
	lw	a0, %lo(g_117)(a1)
	addi	a0, a0, 1
	sw	a0, %lo(g_117)(a1)
	.loc	2 421 13 is_stmt 0              # rnd_output0.c:421:13
	j	.LBB0_187
.Ltmp235:
.LBB0_190:                              #   in Loop: Header=BB0_179 Depth=2
	.loc	2 434 101 is_stmt 1             # rnd_output0.c:434:101
	lw	a0, -44(s0)
	.loc	2 434 99 is_stmt 0              # rnd_output0.c:434:99
	xori	a0, a0, 1
	.loc	2 434 44                        # rnd_output0.c:434:44
	call	safe_unary_minus_func_uint32_t_u
	lui	a1, 4
	sub	a1, s0, a1
	lw	a1, 736(a1)                     # 4-byte Folded Reload
	.loc	2 434 142                       # rnd_output0.c:434:142
	lui	a2, 4
	sub	a2, s0, a2
	sw	a0, 384(a2)                     # 4-byte Folded Spill
	lw	a0, -24(s0)
	.loc	2 434 141                       # rnd_output0.c:434:141
	lw	a0, 0(a0)
	.loc	2 434 150                       # rnd_output0.c:434:150
	lw	a1, 924(a1)
	.loc	2 434 157                       # rnd_output0.c:434:157
	seqz	a1, a1
	.loc	2 434 111                       # rnd_output0.c:434:111
	call	safe_rshift_func_int32_t_s_u
	mv	a1, a0
	.loc	2 434 18                        # rnd_output0.c:434:18
	lui	a0, 4
	sub	a0, s0, a0
	lw	a0, 384(a0)                     # 4-byte Folded Reload
	slli	a1, a1, 24
	srai	a1, a1, 24
	slli	a0, a0, 24
	srai	a0, a0, 24
	call	safe_div_func_int8_t_s_s
.Ltmp236:
	.loc	2 434 17                        # rnd_output0.c:434:17
	beqz	a0, .LBB0_192
	j	.LBB0_191
.LBB0_191:                              #   in Loop: Header=BB0_179 Depth=2
	.loc	2 0 17                          # rnd_output0.c:0:17
	lui	a0, 4
	sub	a0, s0, a0
	lw	a1, 756(a0)                     # 4-byte Folded Reload
	lui	a0, 4
	sub	a0, s0, a0
	lw	a0, 740(a0)                     # 4-byte Folded Reload
	lui	a2, 16665
	addi	a2, a2, 734
.Ltmp237:
	.loc	2 436 26 is_stmt 1              # rnd_output0.c:436:26
	sw	a2, 200(a0)
	lui	a2, 183323
	addi	a2, a2, -1747
	.loc	2 437 25                        # rnd_output0.c:437:25
	sw	a2, 196(a0)
	li	a2, 1
	.loc	2 438 25                        # rnd_output0.c:438:25
	sw	a2, 192(a0)
	.loc	2 439 23                        # rnd_output0.c:439:23
	lw	a2, 200(a0)
	addi	a2, a2, -1
	sw	a2, 200(a0)
	.loc	2 440 40                        # rnd_output0.c:440:40
	lw	a2, 1448(a0)
	.loc	2 440 37 is_stmt 0              # rnd_output0.c:440:37
	lui	a0, %hi(g_152)
	addi	a0, a0, %lo(g_152)
	xor	a0, a0, a2
	snez	a0, a0
	.loc	2 440 19                        # rnd_output0.c:440:19
	lw	a2, 468(a1)
	.loc	2 440 27                        # rnd_output0.c:440:27
	sw	a0, 0(a2)
	.loc	2 441 17 is_stmt 1              # rnd_output0.c:441:17
	lw	a0, 464(a1)
	addi	a0, a0, -1
	sw	a0, 464(a1)
	.loc	2 442 13                        # rnd_output0.c:442:13
	j	.LBB0_197
.Ltmp238:
.LBB0_192:                              #   in Loop: Header=BB0_179 Depth=2
	.loc	2 445 25                        # rnd_output0.c:445:25
	lui	a0, %hi(.L__const.func_40.l_1532)
	addi	a1, a0, %lo(.L__const.func_40.l_1532)
	lui	a0, 2
	addi	a0, a0, 1680
	sub	a0, s0, a0
	li	a2, 40
	call	memcpy@plt
	lui	a0, 4
	sub	a0, s0, a0
	lw	a2, 740(a0)                     # 4-byte Folded Reload
	.loc	2 446 27                        # rnd_output0.c:446:27
	lui	a0, %hi(g_642)
	addi	a0, a0, %lo(g_642)
	sw	a0, 148(a2)
	.loc	2 447 26                        # rnd_output0.c:447:26
	lui	a0, %hi(.L__const.func_40.l_1543)
	addi	a1, a0, %lo(.L__const.func_40.l_1543)
	lw	a3, 20(a1)
	sw	a3, 144(a2)
	lw	a3, 16(a1)
	sw	a3, 140(a2)
	lw	a3, 12(a1)
	sw	a3, 136(a2)
	lw	a3, 8(a1)
	sw	a3, 132(a2)
	lw	a1, 4(a1)
	sw	a1, 128(a2)
	lw	a0, %lo(.L__const.func_40.l_1543)(a0)
	sw	a0, 124(a2)
	.loc	2 448 27                        # rnd_output0.c:448:27
	lui	a0, %hi(g_200)
	addi	a0, a0, %lo(g_200)
	sw	a0, 120(a2)
	.loc	2 449 27                        # rnd_output0.c:449:27
	lui	a0, %hi(g_1548)
	addi	a0, a0, %lo(g_1548)
	sw	a0, 116(a2)
	lui	a0, 390946
	addi	a0, a0, -1669
	.loc	2 450 25                        # rnd_output0.c:450:25
	sw	a0, 112(a2)
	lui	a0, 597604
	addi	a0, a0, -9
	.loc	2 451 26                        # rnd_output0.c:451:26
	sw	a0, 108(a2)
	li	a3, 0
	.loc	2 452 25                        # rnd_output0.c:452:25
	lui	a0, 4
	sub	a0, s0, a0
	sw	a3, 372(a0)                     # 4-byte Folded Spill
	sw	a3, 104(a2)
	.loc	2 454 117                       # rnd_output0.c:454:117
	lw	a1, -28(s0)
	lw	a0, -32(s0)
	addi	a0, a0, 1
	seqz	a4, a0
	add	a1, a1, a4
	sw	a0, -32(s0)
	sw	a1, -28(s0)
	.loc	2 454 142 is_stmt 0             # rnd_output0.c:454:142
	lw	a2, 184(a2)
	lui	a4, 717544
	addi	a4, a4, -1304
	.loc	2 454 139                       # rnd_output0.c:454:139
	xor	a2, a2, a4
	seqz	a2, a2
	.loc	2 454 89                        # rnd_output0.c:454:89
	call	safe_add_func_uint64_t_u_u
	lui	a2, 4
	sub	a2, s0, a2
	lw	a4, 756(a2)                     # 4-byte Folded Reload
	mv	a2, a0
	lui	a0, 4
	sub	a0, s0, a0
	lw	a0, 740(a0)                     # 4-byte Folded Reload
	.loc	2 454 170                       # rnd_output0.c:454:170
	lw	a3, 184(a0)
	srai	a0, a3, 31
	.loc	2 454 160                       # rnd_output0.c:454:160
	lw	a4, 468(a4)
	.loc	2 454 168                       # rnd_output0.c:454:168
	sw	a3, 0(a4)
	.loc	2 454 155                       # rnd_output0.c:454:155
	sltu	a2, a2, a3
	sltu	a3, a1, a0
	lui	a4, 4
	sub	a4, s0, a4
	sw	a3, 376(a4)                     # 4-byte Folded Spill
	lui	a3, 4
	sub	a3, s0, a3
	sw	a2, 380(a3)                     # 4-byte Folded Spill
	beq	a1, a0, .LBB0_194
# %bb.193:                              #   in Loop: Header=BB0_179 Depth=2
	.loc	2 0 155                         # rnd_output0.c:0:155
	lui	a0, 4
	sub	a0, s0, a0
	lw	a0, 376(a0)                     # 4-byte Folded Reload
	lui	a1, 4
	sub	a1, s0, a1
	sw	a0, 380(a1)                     # 4-byte Folded Spill
.LBB0_194:                              #   in Loop: Header=BB0_179 Depth=2
	.loc	2 454 155                       # rnd_output0.c:454:155
	lui	a0, 4
	sub	a0, s0, a0
	lw	a0, 380(a0)                     # 4-byte Folded Reload
	li	a1, 12
	.loc	2 454 58                        # rnd_output0.c:454:58
	call	safe_rshift_func_int32_t_s_s
	lui	a1, 4
	sub	a1, s0, a1
	lw	a1, 740(a1)                     # 4-byte Folded Reload
	.loc	2 454 234                       # rnd_output0.c:454:234
	lui	a2, 4
	sub	a2, s0, a2
	sw	a0, 360(a2)                     # 4-byte Folded Spill
	lui	a0, %hi(g_1374)
	lw	a0, %lo(g_1374)(a0)
	.loc	2 454 233                       # rnd_output0.c:454:233
	lhu	a0, 0(a0)
	.loc	2 454 222                       # rnd_output0.c:454:222
	lw	a1, 148(a1)
	.loc	2 454 230                       # rnd_output0.c:454:230
	sh	a0, 0(a1)
	.loc	2 454 244                       # rnd_output0.c:454:244
	lhu	a1, -48(s0)
	.loc	2 454 192                       # rnd_output0.c:454:192
	call	safe_mod_func_uint16_t_u_u
	lui	a1, 4
	sub	a1, s0, a1
	lw	a1, 740(a1)                     # 4-byte Folded Reload
	.loc	2 454 397                       # rnd_output0.c:454:397
	lui	a2, 4
	sub	a2, s0, a2
	sw	a0, 356(a2)                     # 4-byte Folded Spill
	lui	a3, %hi(g_588)
	lbu	a0, %lo(g_588)(a3)
	addi	a2, a0, -1
	sb	a2, %lo(g_588)(a3)
	.loc	2 454 389                       # rnd_output0.c:454:389
	lui	a2, %hi(g_70)
	addi	a2, a2, %lo(g_70)
	sb	a0, 80(a2)
	.loc	2 454 417                       # rnd_output0.c:454:417
	lui	a0, %hi(g_532)
	lw	a0, %lo(g_532)(a0)
	.loc	2 454 416                       # rnd_output0.c:454:416
	lw	a0, 0(a0)
	.loc	2 454 413                       # rnd_output0.c:454:413
	sw	a0, 120(a1)
	.loc	2 454 468                       # rnd_output0.c:454:468
	lui	a0, %hi(g_1247)
	lw	a0, %lo(g_1247)(a0)
	.loc	2 454 459                       # rnd_output0.c:454:459
	lw	a2, -652(s0)
	.loc	2 454 466                       # rnd_output0.c:454:466
	sw	a0, 0(a2)
	.loc	2 454 479                       # rnd_output0.c:454:479
	lw	a2, 116(a1)
	.loc	2 454 476                       # rnd_output0.c:454:476
	xor	a0, a0, a2
	seqz	a0, a0
	.loc	2 454 453                       # rnd_output0.c:454:453
	sw	a0, 112(a1)
	.loc	2 454 529                       # rnd_output0.c:454:529
	lw	a0, -48(s0)
	.loc	2 454 373                       # rnd_output0.c:454:373
	not	a1, a0
	.loc	2 454 541                       # rnd_output0.c:454:541
	lw	a0, -1244(s0)
	.loc	2 454 540                       # rnd_output0.c:454:540
	lw	a0, 0(a0)
	.loc	2 454 536                       # rnd_output0.c:454:536
	sltu	a0, a0, a1
	xori	a0, a0, 1
	.loc	2 454 550                       # rnd_output0.c:454:550
	lw	a1, -44(s0)
	.loc	2 454 342                       # rnd_output0.c:454:342
	call	safe_rshift_func_int16_t_s_u
                                        # kill: def $x11 killed $x10
	.loc	2 454 326                       # rnd_output0.c:454:326
	lui	a0, 4
	sub	a0, s0, a0
	lw	a0, 372(a0)                     # 4-byte Folded Reload
	lui	a1, %hi(g_197)
	addi	a1, a1, %lo(g_197)
	sb	a0, 16(a1)
	.loc	2 454 587                       # rnd_output0.c:454:587
	lw	a0, -24(s0)
	.loc	2 454 586                       # rnd_output0.c:454:586
	lw	a1, 0(a0)
	li	a0, 1
	.loc	2 454 286                       # rnd_output0.c:454:286
	lui	a2, 4
	sub	a2, s0, a2
	sw	a0, 364(a2)                     # 4-byte Folded Spill
	call	safe_div_func_int32_t_s_s
	lui	a0, 4
	sub	a0, s0, a0
	lw	a1, 364(a0)                     # 4-byte Folded Reload
	.loc	2 454 597                       # rnd_output0.c:454:597
	lbu	a0, -44(s0)
	.loc	2 454 255                       # rnd_output0.c:454:255
	call	safe_rshift_func_uint8_t_u_s
	lui	a1, 4
	sub	a1, s0, a1
	lw	a2, 356(a1)                     # 4-byte Folded Reload
	mv	a1, a0
	.loc	2 454 251                       # rnd_output0.c:454:251
	lui	a0, 4
	sub	a0, s0, a0
	lw	a0, 360(a0)                     # 4-byte Folded Reload
	slt	a1, a1, a2
	xori	a1, a1, 1
	.loc	2 454 188                       # rnd_output0.c:454:188
	slt	a0, a0, a1
	lui	a1, 6
	addi	a1, a1, 1425
	.loc	2 454 30                        # rnd_output0.c:454:30
	call	safe_div_func_int16_t_s_s
	lui	a1, 4
	sub	a1, s0, a1
	lw	a2, 364(a1)                     # 4-byte Folded Reload
	mv	a1, a0
	.loc	2 454 624                       # rnd_output0.c:454:624
	lui	a0, %hi(g_955)
	addi	a0, a0, %lo(g_955)
	lh	a0, 26(a0)
	.loc	2 454 640                       # rnd_output0.c:454:640
	lui	a3, 4
	sub	a3, s0, a3
	sw	a2, 368(a3)                     # 4-byte Folded Spill
	bge	a0, a1, .LBB0_196
	j	.LBB0_195
.LBB0_195:                              #   in Loop: Header=BB0_179 Depth=2
	.loc	2 0 640                         # rnd_output0.c:0:640
	li	a0, 1
	.loc	2 454 640                       # rnd_output0.c:454:640
	lui	a1, 4
	sub	a1, s0, a1
	sw	a0, 368(a1)                     # 4-byte Folded Spill
	j	.LBB0_196
.LBB0_196:                              #   in Loop: Header=BB0_179 Depth=2
	.loc	2 0 640                         # rnd_output0.c:0:640
	lui	a0, 4
	sub	a0, s0, a0
	lw	a1, 736(a0)                     # 4-byte Folded Reload
	lui	a0, 4
	sub	a0, s0, a0
	lw	a0, 368(a0)                     # 4-byte Folded Reload
	.loc	2 454 24                        # rnd_output0.c:454:24
	lhu	a2, 922(a1)
	.loc	2 454 640                       # rnd_output0.c:454:640
	and	a0, a0, a2
	.loc	2 454 24                        # rnd_output0.c:454:24
	andi	a0, a0, 1
	sh	a0, 922(a1)
	j	.LBB0_197
.Ltmp239:
.LBB0_197:                              #   in Loop: Header=BB0_179 Depth=2
	.loc	2 456 15 is_stmt 1              # rnd_output0.c:456:15
	lui	a0, 4
	sub	a0, s0, a0
	lw	a0, 756(a0)                     # 4-byte Folded Reload
	lw	a1, 468(a0)
	.loc	2 456 23 is_stmt 0              # rnd_output0.c:456:23
	lw	a0, 0(a1)
	ori	a0, a0, 1
	sw	a0, 0(a1)
	.loc	2 457 9 is_stmt 1               # rnd_output0.c:457:9
	j	.LBB0_198
.Ltmp240:
.LBB0_198:                              #   in Loop: Header=BB0_179 Depth=2
	.loc	2 401 91                        # rnd_output0.c:401:91
	lui	a0, 4
	sub	a0, s0, a0
	lw	a0, 756(a0)                     # 4-byte Folded Reload
	lb	a0, 564(a0)
	li	a1, 8
	.loc	2 401 59 is_stmt 0              # rnd_output0.c:401:59
	call	safe_add_func_int8_t_s_s
	lui	a1, 4
	sub	a1, s0, a1
	lw	a1, 756(a1)                     # 4-byte Folded Reload
	.loc	2 401 57                        # rnd_output0.c:401:57
	sb	a0, 564(a1)
	.loc	2 401 9                         # rnd_output0.c:401:9
	j	.LBB0_179
.Ltmp241:
.LBB0_199:
	.loc	2 458 19 is_stmt 1              # rnd_output0.c:458:19
	lui	a1, %hi(g_89)
	li	a0, -23
	sh	a0, %lo(g_89)(a1)
	.loc	2 458 14 is_stmt 0              # rnd_output0.c:458:14
	j	.LBB0_200
.LBB0_200:                              # =>This Loop Header: Depth=1
                                        #     Child Loop BB0_206 Depth 2
                                        #       Child Loop BB0_208 Depth 3
                                        #       Child Loop BB0_212 Depth 3
                                        #       Child Loop BB0_230 Depth 3
.Ltmp242:
	.loc	2 458 29                        # rnd_output0.c:458:29
	lui	a0, %hi(g_89)
	lhu	a1, %lo(g_89)(a0)
	li	a0, 36
.Ltmp243:
	.loc	2 458 9                         # rnd_output0.c:458:9
	blt	a0, a1, .LBB0_247
	j	.LBB0_201
.LBB0_201:                              #   in Loop: Header=BB0_200 Depth=1
	.loc	2 0 9                           # rnd_output0.c:0:9
	lui	a0, 4
	sub	a0, s0, a0
	lw	a3, 740(a0)                     # 4-byte Folded Reload
	li	a0, -1
.Ltmp244:
	.loc	2 460 22 is_stmt 1              # rnd_output0.c:460:22
	sw	a0, 92(a3)
	li	a1, -9
	sw	a1, 88(a3)
	lui	a1, 987226
	addi	a1, a1, 417
	.loc	2 461 21                        # rnd_output0.c:461:21
	sw	a1, 84(a3)
	.loc	2 462 22                        # rnd_output0.c:462:22
	sw	a0, 80(a3)
	li	a0, 0
	.loc	2 463 22                        # rnd_output0.c:463:22
	lui	a1, 4
	sub	a1, s0, a1
	sw	a0, 344(a1)                     # 4-byte Folded Spill
	sw	a0, 76(a3)
	lui	a1, 1048366
	addi	a1, a1, 1075
	.loc	2 464 21                        # rnd_output0.c:464:21
	sw	a1, 72(a3)
	li	a1, -4
	.loc	2 465 21                        # rnd_output0.c:465:21
	sh	a1, 68(a3)
	lui	a2, 1048528
	addi	a2, a2, -4
	sw	a2, 64(a3)
	sw	a2, 60(a3)
	sw	a2, 56(a3)
	.loc	2 466 22                        # rnd_output0.c:466:22
	sw	a0, 52(a3)
	sw	a0, 48(a3)
	sw	a0, 44(a3)
	li	a2, 2
	sw	a2, 40(a3)
	.loc	2 467 33                        # rnd_output0.c:467:33
	sw	a0, 36(a3)
	.loc	2 468 36                        # rnd_output0.c:468:36
	lui	a2, 1
	addi	a2, a2, 1892
	sub	a2, s0, a2
	.loc	2 468 26 is_stmt 0              # rnd_output0.c:468:26
	sw	a2, 32(a3)
	.loc	2 470 45 is_stmt 1              # rnd_output0.c:470:45
	lw	a4, 88(a3)
	.loc	2 470 42 is_stmt 0              # rnd_output0.c:470:42
	lw	a2, 84(a3)
	or	a2, a2, a4
	sw	a2, 84(a3)
	.loc	2 470 102                       # rnd_output0.c:470:102
	lui	a2, 4
	sub	a2, s0, a2
	sw	a0, 340(a2)                     # 4-byte Folded Spill
	lui	a0, %hi(g_8)
	addi	a0, a0, %lo(g_8)
	lw	a0, 480(a0)
	.loc	2 470 75                        # rnd_output0.c:470:75
	call	safe_mod_func_uint32_t_u_u
	lui	a1, 4
	sub	a1, s0, a1
	lw	a1, 344(a1)                     # 4-byte Folded Reload
	mv	a2, a0
	lui	a0, 4
	sub	a0, s0, a0
	lw	a0, 756(a0)                     # 4-byte Folded Reload
	.loc	2 470 220                       # rnd_output0.c:470:220
	lui	a3, 4
	sub	a3, s0, a3
	sw	a2, 348(a3)                     # 4-byte Folded Spill
	lw	a2, 456(a0)
	lw	a0, 452(a0)
	or	a0, a0, a2
	.loc	2 470 230                       # rnd_output0.c:470:230
	lui	a2, 4
	sub	a2, s0, a2
	sw	a1, 352(a2)                     # 4-byte Folded Spill
	beqz	a0, .LBB0_203
	j	.LBB0_202
.LBB0_202:                              #   in Loop: Header=BB0_200 Depth=1
	.loc	2 470 260                       # rnd_output0.c:470:260
	lui	a0, 4
	sub	a0, s0, a0
	lw	a1, 740(a0)                     # 4-byte Folded Reload
	lw	a0, -48(s0)
	.loc	2 470 266                       # rnd_output0.c:470:266
	lw	a2, 80(a1)
	li	a3, 0
	.loc	2 470 234                       # rnd_output0.c:470:234
	mv	a1, a3
	call	safe_add_func_int64_t_s_s
	.loc	2 470 230                       # rnd_output0.c:470:230
	or	a0, a0, a1
	snez	a0, a0
	lui	a1, 4
	sub	a1, s0, a1
	sw	a0, 352(a1)                     # 4-byte Folded Spill
	j	.LBB0_203
.LBB0_203:                              #   in Loop: Header=BB0_200 Depth=1
	.loc	2 0 0                           # rnd_output0.c:0:0
	lui	a0, 4
	sub	a0, s0, a0
	lw	a0, 352(a0)                     # 4-byte Folded Reload
	.loc	2 470 219                       # rnd_output0.c:470:219
	andi	a2, a0, 1
	lui	a0, 180224
	addi	a0, a0, 77
	lui	a1, 979832
	addi	a1, a1, 1483
	li	a3, 0
	.loc	2 470 170                       # rnd_output0.c:470:170
	lui	a4, 4
	sub	a4, s0, a4
	sw	a3, 332(a4)                     # 4-byte Folded Spill
	call	safe_mul_func_uint64_t_u_u
	mv	a2, a1
	lui	a1, 4
	sub	a1, s0, a1
	lw	a1, 332(a1)                     # 4-byte Folded Reload
	or	a0, a0, a2
	.loc	2 470 278                       # rnd_output0.c:470:278
	lui	a2, 4
	sub	a2, s0, a2
	sw	a1, 336(a2)                     # 4-byte Folded Spill
	beqz	a0, .LBB0_205
	j	.LBB0_204
.LBB0_204:                              #   in Loop: Header=BB0_200 Depth=1
	.loc	2 470 281                       # rnd_output0.c:470:281
	lui	a0, 4
	sub	a0, s0, a0
	lw	a0, 740(a0)                     # 4-byte Folded Reload
	lw	a1, 92(a0)
	lw	a0, 88(a0)
	.loc	2 470 278                       # rnd_output0.c:470:278
	or	a0, a0, a1
	snez	a0, a0
	lui	a1, 4
	sub	a1, s0, a1
	sw	a0, 336(a1)                     # 4-byte Folded Spill
	j	.LBB0_205
.LBB0_205:                              #   in Loop: Header=BB0_200 Depth=1
	.loc	2 0 0                           # rnd_output0.c:0:0
	lui	a0, 4
	sub	a0, s0, a0
	lw	a0, 336(a0)                     # 4-byte Folded Reload
	.loc	2 470 278                       # rnd_output0.c:470:278
	andi	a1, a0, 1
	li	a0, 0
	.loc	2 470 135                       # rnd_output0.c:470:135
	call	safe_lshift_func_int32_t_s_u
	lui	a1, 4
	sub	a1, s0, a1
	lw	a3, 348(a1)                     # 4-byte Folded Reload
	lui	a1, 4
	sub	a1, s0, a1
	lw	a1, 340(a1)                     # 4-byte Folded Reload
	mv	a2, a0
	.loc	2 470 291                       # rnd_output0.c:470:291
	lui	a0, 4
	sub	a0, s0, a0
	lw	a0, 756(a0)                     # 4-byte Folded Reload
	sltiu	a2, a2, 8
	xor	a2, a2, a3
	.loc	2 470 131                       # rnd_output0.c:470:131
	xori	a2, a2, 1
	.loc	2 470 70                        # rnd_output0.c:470:70
	xor	a1, a1, a2
	seqz	a2, a1
	.loc	2 470 15                        # rnd_output0.c:470:15
	lw	a1, 468(a0)
	.loc	2 470 23                        # rnd_output0.c:470:23
	lw	a0, 0(a1)
	or	a0, a0, a2
	sw	a0, 0(a1)
.Ltmp245:
	.loc	2 471 23 is_stmt 1              # rnd_output0.c:471:23
	lui	a1, %hi(g_13)
	li	a0, 17
	sw	a0, %lo(g_13)(a1)
	.loc	2 471 18 is_stmt 0              # rnd_output0.c:471:18
	j	.LBB0_206
.LBB0_206:                              #   Parent Loop BB0_200 Depth=1
                                        # =>  This Loop Header: Depth=2
                                        #       Child Loop BB0_208 Depth 3
                                        #       Child Loop BB0_212 Depth 3
                                        #       Child Loop BB0_230 Depth 3
.Ltmp246:
	.loc	2 471 30                        # rnd_output0.c:471:30
	lui	a0, %hi(g_13)
	lw	a0, %lo(g_13)(a0)
	li	a1, -15
.Ltmp247:
	.loc	2 471 13                        # rnd_output0.c:471:13
	beq	a0, a1, .LBB0_245
	j	.LBB0_207
.LBB0_207:                              #   in Loop: Header=BB0_206 Depth=2
	.loc	2 0 13                          # rnd_output0.c:0:13
	lui	a0, 4
	sub	a0, s0, a0
	lw	a1, 740(a0)                     # 4-byte Folded Reload
	li	a0, 0
.Ltmp248:
	.loc	2 473 26 is_stmt 1              # rnd_output0.c:473:26
	lui	a2, 4
	sub	a2, s0, a2
	sw	a0, 328(a2)                     # 4-byte Folded Spill
	sw	a0, 20(a1)
	sw	a0, 16(a1)
	li	a0, -2
	sw	a0, 12(a1)
	lui	a0, 40081
	addi	a0, a0, -173
	sw	a0, 8(a1)
	.loc	2 474 27                        # rnd_output0.c:474:27
	lui	a0, %hi(g_1548)
	addi	a0, a0, %lo(g_1548)
	sw	a0, 4(a1)
	li	a0, -5
	.loc	2 475 25                        # rnd_output0.c:475:25
	sw	a0, 0(a1)
	.loc	2 476 27                        # rnd_output0.c:476:27
	lui	a0, %hi(.L__const.func_40.l_1619)
	addi	a1, a0, %lo(.L__const.func_40.l_1619)
	li	a0, 25
	slli	a2, a0, 7
	lui	a0, 3
	addi	a0, a0, 944
	sub	a0, s0, a0
	call	memcpy@plt
	lui	a1, 4
	sub	a1, s0, a1
	lw	a1, 744(a1)                     # 4-byte Folded Reload
                                        # kill: def $x12 killed $x10
	lui	a0, 4
	sub	a0, s0, a0
	lw	a0, 328(a0)                     # 4-byte Folded Reload
	addi	a2, s0, -2048
	addi	a2, a2, -849
	.loc	2 477 25                        # rnd_output0.c:477:25
	sw	a2, 24(a1)
	lui	a2, 3
	addi	a2, a2, 948
	sub	a2, s0, a2
	.loc	2 478 26                        # rnd_output0.c:478:26
	sw	a2, 20(a1)
	.loc	2 479 26                        # rnd_output0.c:479:26
	sw	a2, 16(a1)
	lui	a2, 3
	addi	a2, a2, 956
	sub	a2, s0, a2
	.loc	2 480 27                        # rnd_output0.c:480:27
	sw	a2, 12(a1)
.Ltmp249:
	.loc	2 483 24                        # rnd_output0.c:483:24
	sw	a0, 0(a1)
	.loc	2 483 22 is_stmt 0              # rnd_output0.c:483:22
	j	.LBB0_208
.LBB0_208:                              #   Parent Loop BB0_200 Depth=1
                                        #     Parent Loop BB0_206 Depth=2
                                        # =>    This Inner Loop Header: Depth=3
.Ltmp250:
	.loc	2 483 29                        # rnd_output0.c:483:29
	lui	a0, 4
	sub	a0, s0, a0
	lw	a0, 744(a0)                     # 4-byte Folded Reload
	lw	a1, 0(a0)
	li	a0, 1
.Ltmp251:
	.loc	2 483 17                        # rnd_output0.c:483:17
	blt	a0, a1, .LBB0_211
	j	.LBB0_209
.LBB0_209:                              #   in Loop: Header=BB0_208 Depth=3
.Ltmp252:
	.loc	2 484 34 is_stmt 1              # rnd_output0.c:484:34
	lui	a0, 4
	sub	a0, s0, a0
	lw	a1, 744(a0)                     # 4-byte Folded Reload
	lui	a0, 1
	addi	a0, a0, 2032
	sub	a0, s0, a0
	.loc	2 484 28 is_stmt 0              # rnd_output0.c:484:28
	lw	a1, 0(a1)
	.loc	2 484 21                        # rnd_output0.c:484:21
	slli	a2, a1, 2
	lui	a1, 3
	addi	a1, a1, 968
	sub	a1, s0, a1
	add	a1, a1, a2
	.loc	2 484 31                        # rnd_output0.c:484:31
	sw	a0, 0(a1)
	.loc	2 484 21                        # rnd_output0.c:484:21
	j	.LBB0_210
.LBB0_210:                              #   in Loop: Header=BB0_208 Depth=3
	.loc	2 483 37 is_stmt 1              # rnd_output0.c:483:37
	lui	a0, 4
	sub	a0, s0, a0
	lw	a1, 744(a0)                     # 4-byte Folded Reload
	lw	a0, 0(a1)
	addi	a0, a0, 1
	sw	a0, 0(a1)
	.loc	2 483 17 is_stmt 0              # rnd_output0.c:483:17
	j	.LBB0_208
.Ltmp253:
.LBB0_211:                              #   in Loop: Header=BB0_206 Depth=2
	.loc	2 0 17                          # rnd_output0.c:0:17
	lui	a0, 4
	sub	a0, s0, a0
	lw	a1, 756(a0)                     # 4-byte Folded Reload
	li	a0, 244
.Ltmp254:
	.loc	2 485 32 is_stmt 1              # rnd_output0.c:485:32
	sb	a0, 564(a1)
	.loc	2 485 22 is_stmt 0              # rnd_output0.c:485:22
	j	.LBB0_212
.LBB0_212:                              #   Parent Loop BB0_200 Depth=1
                                        #     Parent Loop BB0_206 Depth=2
                                        # =>    This Inner Loop Header: Depth=3
.Ltmp255:
	.loc	2 485 49                        # rnd_output0.c:485:49
	lui	a0, 4
	sub	a0, s0, a0
	lw	a0, 756(a0)                     # 4-byte Folded Reload
	lbu	a0, 564(a0)
	li	a1, 48
.Ltmp256:
	.loc	2 485 17                        # rnd_output0.c:485:17
	blt	a0, a1, .LBB0_219
	j	.LBB0_213
.LBB0_213:                              #   in Loop: Header=BB0_212 Depth=3
.Ltmp257:
	.loc	2 487 30 is_stmt 1              # rnd_output0.c:487:30
	lui	a0, %hi(.L__const.func_40.l_1586)
	addi	a1, a0, %lo(.L__const.func_40.l_1586)
	lui	a0, 3
	addi	a0, a0, 1016
	sub	a0, s0, a0
	li	a2, 36
	call	memcpy@plt
	lui	a0, 4
	sub	a0, s0, a0
	lw	a1, 748(a0)                     # 4-byte Folded Reload
	li	a0, 4
	.loc	2 488 29                        # rnd_output0.c:488:29
	sw	a0, 2020(a1)
	lui	a0, 2
	addi	a0, a0, 1824
	sub	a0, s0, a0
	.loc	2 489 30                        # rnd_output0.c:489:30
	sw	a0, 2016(a1)
	addi	a2, s0, -2048
	addi	a2, a2, -1002
	.loc	2 490 31                        # rnd_output0.c:490:31
	sw	a2, 2012(a1)
	.loc	2 491 29                        # rnd_output0.c:491:29
	sw	a0, 2008(a1)
	.loc	2 492 29                        # rnd_output0.c:492:29
	lui	a0, %hi(g_70)
	addi	a0, a0, %lo(g_70)
	addi	a0, a0, 80
	sw	a0, 2004(a1)
	addi	a0, s0, -2048
	addi	a0, a0, -849
	.loc	2 493 29                        # rnd_output0.c:493:29
	sw	a0, 2000(a1)
	.loc	2 495 42                        # rnd_output0.c:495:42
	lui	a2, %hi(g_1571)
	addi	a0, s0, -40
	sw	a0, %lo(g_1571)(a2)
	.loc	2 495 305 is_stmt 0             # rnd_output0.c:495:305
	lw	a0, 2036(a1)
	.loc	2 495 303                       # rnd_output0.c:495:303
	sw	a0, 2020(a1)
	.loc	2 495 388                       # rnd_output0.c:495:388
	lw	a0, -32(s0)
	.loc	2 495 393                       # rnd_output0.c:495:393
	andi	a0, a0, 1
	li	a1, 0
	li	a3, -1
	.loc	2 495 360                       # rnd_output0.c:495:360
	mv	a2, a3
	call	safe_add_func_int64_t_s_s
	lui	a2, 4
	sub	a2, s0, a2
	lw	a2, 748(a2)                     # 4-byte Folded Reload
	lui	a3, 4
	sub	a3, s0, a3
	sw	a0, 320(a3)                     # 4-byte Folded Spill
                                        # kill: def $x10 killed $x11
	.loc	2 495 359                       # rnd_output0.c:495:359
	lui	a0, 4
	sub	a0, s0, a0
	lw	a1, 320(a0)                     # 4-byte Folded Reload
	andi	a0, a1, 255
	.loc	2 495 349                       # rnd_output0.c:495:349
	lw	a2, 2016(a2)
	.loc	2 495 357                       # rnd_output0.c:495:357
	sb	a1, 0(a2)
	li	a1, 1
	.loc	2 495 432                       # rnd_output0.c:495:432
	lui	a2, 4
	sub	a2, s0, a2
	sw	a1, 324(a2)                     # 4-byte Folded Spill
	bnez	a0, .LBB0_215
	j	.LBB0_214
.LBB0_214:                              #   in Loop: Header=BB0_212 Depth=3
	.loc	2 495 442                       # rnd_output0.c:495:442
	lui	a0, 4
	sub	a0, s0, a0
	lw	a0, 740(a0)                     # 4-byte Folded Reload
	lbu	a0, 8(a0)
	.loc	2 495 432                       # rnd_output0.c:495:432
	snez	a0, a0
	lui	a1, 4
	sub	a1, s0, a1
	sw	a0, 324(a1)                     # 4-byte Folded Spill
	j	.LBB0_215
.LBB0_215:                              #   in Loop: Header=BB0_212 Depth=3
	.loc	2 0 432                         # rnd_output0.c:0:432
	lui	a0, 4
	sub	a0, s0, a0
	lw	a0, 324(a0)                     # 4-byte Folded Reload
	.loc	2 495 432                       # rnd_output0.c:495:432
	andi	a0, a0, 1
	lui	a1, 4
	addi	a1, a1, 1713
	.loc	2 495 319                       # rnd_output0.c:495:319
	call	safe_sub_func_int16_t_s_s
	mv	a2, a0
	.loc	2 495 294                       # rnd_output0.c:495:294
	srai	a3, a2, 31
	li	a1, 0
	.loc	2 495 239                       # rnd_output0.c:495:239
	mv	a0, a1
	call	safe_div_func_int64_t_s_s
	.loc	2 495 461                       # rnd_output0.c:495:461
	lui	a1, %hi(g_388)
	lh	a1, %lo(g_388)(a1)
	.loc	2 495 212                       # rnd_output0.c:495:212
	slli	a0, a0, 16
	srai	a0, a0, 16
	call	safe_add_func_int16_t_s_s
	lui	a1, 4
	sub	a1, s0, a1
	lw	a2, 756(a1)                     # 4-byte Folded Reload
	.loc	2 495 201                       # rnd_output0.c:495:201
	srai	a1, a0, 31
	.loc	2 495 473                       # rnd_output0.c:495:473
	lw	a2, 468(a2)
	.loc	2 495 472                       # rnd_output0.c:495:472
	lw	a2, 0(a2)
	srai	a3, a2, 31
	.loc	2 495 174                       # rnd_output0.c:495:174
	call	safe_add_func_uint64_t_u_u
	lui	a0, 942150
	addi	a0, a0, -1892
	lui	a1, 68149
	addi	a1, a1, 1672
	lui	a2, 757209
	addi	a2, a2, -1529
	lui	a3, 1023773
	addi	a3, a3, 1922
	.loc	2 495 146                       # rnd_output0.c:495:146
	call	safe_mod_func_int64_t_s_s
	.loc	2 495 143                       # rnd_output0.c:495:143
	slti	a2, a1, -1
	lui	a3, 4
	sub	a3, s0, a3
	sw	a2, 312(a3)                     # 4-byte Folded Spill
	sltiu	a2, a0, -2
	li	a0, -1
	lui	a3, 4
	sub	a3, s0, a3
	sw	a2, 316(a3)                     # 4-byte Folded Spill
	beq	a1, a0, .LBB0_217
# %bb.216:                              #   in Loop: Header=BB0_212 Depth=3
	.loc	2 0 143                         # rnd_output0.c:0:143
	lui	a0, 4
	sub	a0, s0, a0
	lw	a0, 312(a0)                     # 4-byte Folded Reload
	lui	a1, 4
	sub	a1, s0, a1
	sw	a0, 316(a1)                     # 4-byte Folded Spill
.LBB0_217:                              #   in Loop: Header=BB0_212 Depth=3
	.loc	2 495 143                       # rnd_output0.c:495:143
	lui	a0, 4
	sub	a0, s0, a0
	lw	a3, 316(a0)                     # 4-byte Folded Reload
	.loc	2 495 125                       # rnd_output0.c:495:125
	lui	a0, %hi(g_1571)
	lw	a2, %lo(g_1571)(a0)
	.loc	2 495 133                       # rnd_output0.c:495:133
	lw	a1, 4(a2)
	lw	a0, 0(a2)
	xor	a0, a0, a3
	sw	a1, 4(a2)
	sw	a0, 0(a2)
	lui	a2, 213010
	addi	a2, a2, 1648
	.loc	2 495 533                       # rnd_output0.c:495:533
	xor	a0, a0, a2
	lui	a2, 466005
	addi	a2, a2, 28
	xor	a1, a1, a2
	or	a0, a0, a1
	seqz	a0, a0
	.loc	2 495 559                       # rnd_output0.c:495:559
	lh	a1, -48(s0)
	.loc	2 495 95                        # rnd_output0.c:495:95
	call	safe_sub_func_int16_t_s_s
	.loc	2 495 93                        # rnd_output0.c:495:93
	not	a0, a0
	lui	a1, 9
	addi	a1, a1, 1738
	.loc	2 495 567                       # rnd_output0.c:495:567
	and	a0, a0, a1
	.loc	2 495 65                        # rnd_output0.c:495:65
	slli	a0, a0, 16
	srai	a0, a0, 16
	lui	a1, 1048574
	addi	a1, a1, -121
	call	safe_mod_func_int16_t_s_s
	lui	a1, 4
	sub	a1, s0, a1
	lw	a1, 740(a1)                     # 4-byte Folded Reload
                                        # kill: def $x12 killed $x10
	.loc	2 495 591                       # rnd_output0.c:495:591
	lui	a0, 4
	sub	a0, s0, a0
	lw	a0, 748(a0)                     # 4-byte Folded Reload
	lw	a0, 2036(a0)
	.loc	2 495 605                       # rnd_output0.c:495:605
	lw	a2, -44(s0)
	.loc	2 495 603                       # rnd_output0.c:495:603
	xor	a2, a2, a0
	.loc	2 495 28                        # rnd_output0.c:495:28
	lw	a0, 0(a1)
	xor	a0, a0, a2
	sw	a0, 0(a1)
	addi	a0, s0, -44
	.loc	2 496 36 is_stmt 1              # rnd_output0.c:496:36
	sw	a0, -24(s0)
	.loc	2 496 28 is_stmt 0              # rnd_output0.c:496:28
	sw	a0, 76(a1)
	.loc	2 497 17 is_stmt 1              # rnd_output0.c:497:17
	j	.LBB0_218
.Ltmp258:
.LBB0_218:                              #   in Loop: Header=BB0_212 Depth=3
	.loc	2 485 59                        # rnd_output0.c:485:59
	lui	a0, 4
	sub	a0, s0, a0
	lw	a1, 756(a0)                     # 4-byte Folded Reload
	lbu	a0, 564(a1)
	addi	a0, a0, 1
	sb	a0, 564(a1)
	.loc	2 485 17 is_stmt 0              # rnd_output0.c:485:17
	j	.LBB0_212
.Ltmp259:
.LBB0_219:                              #   in Loop: Header=BB0_206 Depth=2
	.loc	2 498 67 is_stmt 1              # rnd_output0.c:498:67
	lw	a1, -28(s0)
	lw	a0, -32(s0)
	or	a0, a0, a1
	.loc	2 498 72 is_stmt 0              # rnd_output0.c:498:72
	bnez	a0, .LBB0_221
	j	.LBB0_220
.LBB0_220:                              #   in Loop: Header=BB0_206 Depth=2
	.loc	2 0 72                          # rnd_output0.c:0:72
	li	a0, 0
	mv	a1, a0
	.loc	2 498 82                        # rnd_output0.c:498:82
	lui	a2, 4
	sub	a2, s0, a2
	sw	a1, 308(a2)                     # 4-byte Folded Spill
	bnez	a0, .LBB0_222
	j	.LBB0_221
.LBB0_221:                              #   in Loop: Header=BB0_206 Depth=2
	.loc	2 498 91                        # rnd_output0.c:498:91
	lui	a0, %hi(g_813)
	lw	a0, %lo(g_813)(a0)
	.loc	2 498 82                        # rnd_output0.c:498:82
	snez	a0, a0
	lui	a1, 4
	sub	a1, s0, a1
	sw	a0, 308(a1)                     # 4-byte Folded Spill
	j	.LBB0_222
.LBB0_222:                              #   in Loop: Header=BB0_206 Depth=2
	.loc	2 0 0                           # rnd_output0.c:0:0
	lui	a0, 4
	sub	a0, s0, a0
	lw	a0, 736(a0)                     # 4-byte Folded Reload
	lui	a1, 4
	sub	a1, s0, a1
	lw	a2, 756(a1)                     # 4-byte Folded Reload
	lui	a1, 4
	sub	a1, s0, a1
	lw	a1, 308(a1)                     # 4-byte Folded Reload
	.loc	2 498 82                        # rnd_output0.c:498:82
	andi	a1, a1, 1
	.loc	2 498 55                        # rnd_output0.c:498:55
	lui	a3, 4
	sub	a3, s0, a3
	sw	a1, 304(a3)                     # 4-byte Folded Spill
	lw	a2, 468(a2)
	.loc	2 498 63                        # rnd_output0.c:498:63
	sw	a1, 0(a2)
	.loc	2 498 124                       # rnd_output0.c:498:124
	lbu	a0, 916(a0)
	.loc	2 498 132                       # rnd_output0.c:498:132
	lui	a1, %hi(g_588)
	lbu	a1, %lo(g_588)(a1)
	.loc	2 498 98                        # rnd_output0.c:498:98
	call	safe_mul_func_uint8_t_u_u
	mv	a1, a0
	.loc	2 498 26                        # rnd_output0.c:498:26
	lui	a0, 4
	sub	a0, s0, a0
	lw	a0, 304(a0)                     # 4-byte Folded Reload
	call	safe_mul_func_int32_t_s_s
	mv	a1, a0
	.loc	2 498 22                        # rnd_output0.c:498:22
	lw	a0, -44(s0)
	and	a0, a0, a1
	sw	a0, -44(s0)
.Ltmp260:
	.loc	2 499 23 is_stmt 1              # rnd_output0.c:499:23
	lw	a0, -24(s0)
	.loc	2 499 22 is_stmt 0              # rnd_output0.c:499:22
	lw	a0, 0(a0)
.Ltmp261:
	.loc	2 499 21                        # rnd_output0.c:499:21
	beqz	a0, .LBB0_224
	j	.LBB0_223
.LBB0_223:                              #   in Loop: Header=BB0_206 Depth=2
.Ltmp262:
	.loc	2 500 21 is_stmt 1              # rnd_output0.c:500:21
	j	.LBB0_244
.Ltmp263:
.LBB0_224:                              #   in Loop: Header=BB0_206 Depth=2
	.loc	2 501 22                        # rnd_output0.c:501:22
	lui	a0, 4
	sub	a0, s0, a0
	lw	a1, 744(a0)                     # 4-byte Folded Reload
	lw	a0, 20(a1)
	.loc	2 501 35 is_stmt 0              # rnd_output0.c:501:35
	lw	a2, 12(a1)
	lui	a1, 3
	addi	a1, a1, 948
	sub	a1, s0, a1
	.loc	2 501 43                        # rnd_output0.c:501:43
	sw	a1, 0(a2)
.Ltmp264:
	.loc	2 501 21                        # rnd_output0.c:501:21
	beq	a0, a1, .LBB0_238
	j	.LBB0_225
.LBB0_225:                              #   in Loop: Header=BB0_206 Depth=2
	.loc	2 0 21                          # rnd_output0.c:0:21
	lui	a0, 3
	addi	a0, a0, 1088
	sub	a0, s0, a0
	li	a1, 0
	lui	a2, 4
	sub	a2, s0, a2
	sw	a1, 280(a2)                     # 4-byte Folded Spill
	li	a2, 40
.Ltmp265:
	.loc	2 503 36 is_stmt 1              # rnd_output0.c:503:36
	call	memset@plt
	lui	a1, 4
	sub	a1, s0, a1
	lw	a1, 748(a1)                     # 4-byte Folded Reload
                                        # kill: def $x12 killed $x10
	lui	a0, 4
	sub	a0, s0, a0
	lw	a0, 280(a0)                     # 4-byte Folded Reload
	lui	a2, 978916
	addi	a3, a2, -1255
	sw	a3, 1956(a1)
	lui	a2, 689785
	addi	a2, a2, 1507
	sw	a2, 1952(a1)
	sw	a3, 1964(a1)
	sw	a2, 1960(a1)
	sw	a3, 1972(a1)
	sw	a2, 1968(a1)
	sw	a3, 1980(a1)
	sw	a2, 1976(a1)
	sw	a3, 1988(a1)
	sw	a2, 1984(a1)
	.loc	2 504 30                        # rnd_output0.c:504:30
	lui	a2, %hi(g_133)
	addi	a2, a2, %lo(g_133)
	addi	a2, a2, 496
	sw	a2, 1948(a1)
	.loc	2 505 40                        # rnd_output0.c:505:40
	addi	a2, s0, -2048
	addi	a2, a2, -1048
	.loc	2 505 30 is_stmt 0              # rnd_output0.c:505:30
	sw	a2, 1944(a1)
	li	a2, 6
	.loc	2 506 29 is_stmt 1              # rnd_output0.c:506:29
	sw	a2, 1940(a1)
	.loc	2 507 30                        # rnd_output0.c:507:30
	sw	a0, 1932(a1)
	sw	a0, 1928(a1)
	sw	a0, 1924(a1)
	lui	a0, 535799
	addi	a0, a0, -1169
	sw	a0, 1920(a1)
	.loc	2 509 122                       # rnd_output0.c:509:122
	lw	a0, -48(s0)
	.loc	2 509 130 is_stmt 0             # rnd_output0.c:509:130
	lw	a1, -28(s0)
	lw	a2, -32(s0)
	.loc	2 509 127                       # rnd_output0.c:509:127
	sltu	a0, a0, a2
	not	a0, a0
	seqz	a1, a1
	and	a0, a0, a1
	.loc	2 509 140                       # rnd_output0.c:509:140
	lw	a3, -56(s0)
	.loc	2 509 146                       # rnd_output0.c:509:146
	lw	a1, 0(a3)
	addi	a2, a1, 1
	sw	a2, 0(a3)
	.loc	2 509 95                        # rnd_output0.c:509:95
	call	safe_sub_func_int32_t_s_s
	lui	a1, 4
	sub	a1, s0, a1
	lw	a1, 748(a1)                     # 4-byte Folded Reload
	.loc	2 509 154                       # rnd_output0.c:509:154
	lui	a2, %hi(g_3)
	lw	a2, %lo(g_3)(a2)
	.loc	2 509 152                       # rnd_output0.c:509:152
	xor	a0, a0, a2
	.loc	2 509 93                        # rnd_output0.c:509:93
	lui	a2, 4
	sub	a2, s0, a2
	sw	a0, 284(a2)                     # 4-byte Folded Spill
	srai	a0, a0, 31
	.loc	2 509 211                       # rnd_output0.c:509:211
	lui	a2, 4
	sub	a2, s0, a2
	sw	a0, 288(a2)                     # 4-byte Folded Spill
	lui	a0, %hi(g_1374)
	lw	a0, %lo(g_1374)(a0)
	.loc	2 509 210                       # rnd_output0.c:509:210
	lhu	a0, 0(a0)
	.loc	2 509 383                       # rnd_output0.c:509:383
	lui	a2, 4
	sub	a2, s0, a2
	sw	a0, 292(a2)                     # 4-byte Folded Spill
	lui	a0, %hi(g_117)
	lw	a0, %lo(g_117)(a0)
	.loc	2 509 423                       # rnd_output0.c:509:423
	lui	a2, 4
	sub	a2, s0, a2
	sw	a0, 296(a2)                     # 4-byte Folded Spill
	lhu	a0, 1984(a1)
	.loc	2 509 440                       # rnd_output0.c:509:440
	lhu	a1, 1960(a1)
	.loc	2 509 455                       # rnd_output0.c:509:455
	lhu	a2, -40(s0)
	.loc	2 509 440                       # rnd_output0.c:509:440
	and	a1, a1, a2
	.loc	2 509 463                       # rnd_output0.c:509:463
	lhu	a2, -44(s0)
	.loc	2 509 461                       # rnd_output0.c:509:461
	or	a1, a1, a2
	.loc	2 509 436                       # rnd_output0.c:509:436
	and	a0, a0, a1
	.loc	2 509 471                       # rnd_output0.c:509:471
	lhu	a1, -32(s0)
	.loc	2 509 395                       # rnd_output0.c:509:395
	call	safe_add_func_uint16_t_u_u
                                        # kill: def $x11 killed $x10
	.loc	2 509 502                       # rnd_output0.c:509:502
	lui	a0, 4
	sub	a0, s0, a0
	lw	a0, 296(a0)                     # 4-byte Folded Reload
	lui	a1, %hi(g_197)
	addi	a1, a1, %lo(g_197)
	lb	a1, 16(a1)
	.loc	2 509 389                       # rnd_output0.c:509:389
	sltu	a0, a0, a1
	xori	a1, a0, 1
	li	a0, -1
	.loc	2 509 347                       # rnd_output0.c:509:347
	call	safe_rshift_func_int8_t_s_s
	.loc	2 509 346                       # rnd_output0.c:509:346
	srai	a1, a0, 31
	li	a2, 56
	.loc	2 509 316                       # rnd_output0.c:509:316
	call	safe_rshift_func_uint64_t_u_s
	.loc	2 509 525                       # rnd_output0.c:509:525
	lw	a3, -36(s0)
	lw	a2, -40(s0)
	.loc	2 509 288                       # rnd_output0.c:509:288
	call	safe_sub_func_uint64_t_u_u
	.loc	2 509 286                       # rnd_output0.c:509:286
	or	a0, a0, a1
	seqz	a0, a0
	.loc	2 509 535                       # rnd_output0.c:509:535
	lui	a1, %hi(g_152)
	lw	a1, %lo(g_152)(a1)
	.loc	2 509 285                       # rnd_output0.c:509:285
	and	a0, a0, a1
	.loc	2 509 251                       # rnd_output0.c:509:251
	call	safe_unary_minus_func_uint32_t_u
	lui	a1, 107015
	addi	a1, a1, 301
	.loc	2 509 544                       # rnd_output0.c:509:544
	xor	a0, a0, a1
	li	a1, 4
	.loc	2 509 223                       # rnd_output0.c:509:223
	call	safe_div_func_int32_t_s_s
	li	a1, 1
	.loc	2 509 565                       # rnd_output0.c:509:565
	lui	a2, 4
	sub	a2, s0, a2
	sw	a1, 300(a2)                     # 4-byte Folded Spill
	bnez	a0, .LBB0_227
	j	.LBB0_226
.LBB0_226:                              #   in Loop: Header=BB0_206 Depth=2
	.loc	2 0 565                         # rnd_output0.c:0:565
	li	a0, 1
	.loc	2 509 565                       # rnd_output0.c:509:565
	lui	a1, 4
	sub	a1, s0, a1
	sw	a0, 300(a1)                     # 4-byte Folded Spill
	j	.LBB0_227
.LBB0_227:                              #   in Loop: Header=BB0_206 Depth=2
	.loc	2 0 565                         # rnd_output0.c:0:565
	lui	a0, 4
	sub	a0, s0, a0
	lw	a1, 288(a0)                     # 4-byte Folded Reload
	lui	a0, 4
	sub	a0, s0, a0
	lw	a0, 284(a0)                     # 4-byte Folded Reload
	lui	a2, 4
	sub	a2, s0, a2
	lw	a3, 748(a2)                     # 4-byte Folded Reload
	lui	a2, 4
	sub	a2, s0, a2
	lw	a2, 292(a2)                     # 4-byte Folded Reload
	lui	a4, 4
	sub	a4, s0, a4
	lw	a4, 300(a4)                     # 4-byte Folded Reload
	.loc	2 509 565                       # rnd_output0.c:509:565
	andi	a4, a4, 1
	.loc	2 509 219                       # rnd_output0.c:509:219
	slt	a2, a2, a4
	lui	a4, 349993
	addi	a4, a4, -340
	.loc	2 509 579                       # rnd_output0.c:509:579
	or	a7, a2, a4
	.loc	2 509 188                       # rnd_output0.c:509:188
	lw	a2, 1948(a3)
	lui	a4, 816261
	addi	a6, a4, -1594
	.loc	2 509 196                       # rnd_output0.c:509:196
	sw	a6, 4(a2)
	sw	a7, 0(a2)
	.loc	2 509 174                       # rnd_output0.c:509:174
	lw	a2, 1944(a3)
	.loc	2 509 182                       # rnd_output0.c:509:182
	lw	a5, 4(a2)
	lw	a4, 0(a2)
	and	a4, a4, a7
	and	a5, a5, a6
	sw	a5, 4(a2)
	sw	a4, 0(a2)
	.loc	2 509 168                       # rnd_output0.c:509:168
	lw	a2, 1940(a3)
	and	a2, a2, a4
	sw	a2, 1940(a3)
	li	a3, 0
	.loc	2 509 67                        # rnd_output0.c:509:67
	lui	a4, 4
	sub	a4, s0, a4
	sw	a3, 272(a4)                     # 4-byte Folded Spill
	call	safe_mod_func_int64_t_s_s
	mv	a2, a1
	lui	a1, 4
	sub	a1, s0, a1
	lw	a1, 272(a1)                     # 4-byte Folded Reload
	or	a0, a0, a2
	.loc	2 509 608                       # rnd_output0.c:509:608
	lui	a2, 4
	sub	a2, s0, a2
	sw	a1, 276(a2)                     # 4-byte Folded Spill
	beqz	a0, .LBB0_229
	j	.LBB0_228
.LBB0_228:                              #   in Loop: Header=BB0_206 Depth=2
	.loc	2 509 611                       # rnd_output0.c:509:611
	lw	a1, -28(s0)
	lw	a0, -32(s0)
	.loc	2 509 608                       # rnd_output0.c:509:608
	or	a0, a0, a1
	snez	a0, a0
	lui	a1, 4
	sub	a1, s0, a1
	sw	a0, 276(a1)                     # 4-byte Folded Spill
	j	.LBB0_229
.LBB0_229:                              #   in Loop: Header=BB0_206 Depth=2
	.loc	2 0 0                           # rnd_output0.c:0:0
	lui	a0, 4
	sub	a0, s0, a0
	lw	a0, 740(a0)                     # 4-byte Folded Reload
	lui	a1, 4
	sub	a1, s0, a1
	lw	a2, 748(a1)                     # 4-byte Folded Reload
	lui	a1, 4
	sub	a1, s0, a1
	lw	a1, 276(a1)                     # 4-byte Folded Reload
	.loc	2 509 625                       # rnd_output0.c:509:625
	lw	a1, -48(s0)
	.loc	2 509 62                        # rnd_output0.c:509:62
	seqz	a1, a1
	.loc	2 509 636                       # rnd_output0.c:509:636
	lw	a3, -1244(s0)
	.loc	2 509 635                       # rnd_output0.c:509:635
	lw	a3, 0(a3)
	.loc	2 509 632                       # rnd_output0.c:509:632
	and	a1, a1, a3
	.loc	2 509 646                       # rnd_output0.c:509:646
	lw	a3, 72(a0)
	.loc	2 509 644                       # rnd_output0.c:509:644
	slt	a3, a1, a3
	.loc	2 509 656                       # rnd_output0.c:509:656
	lw	a1, 1964(a2)
	lw	a2, 1960(a2)
	.loc	2 509 654                       # rnd_output0.c:509:654
	sltu	a2, a2, a3
	seqz	a1, a1
	and	a1, a1, a2
	.loc	2 509 672                       # rnd_output0.c:509:672
	lh	a0, 60(a0)
	.loc	2 509 670                       # rnd_output0.c:509:670
	slt	a0, a0, a1
	.loc	2 509 684                       # rnd_output0.c:509:684
	lbu	a1, -40(s0)
	.loc	2 509 31                        # rnd_output0.c:509:31
	call	safe_sub_func_uint8_t_u_u
	lui	a1, 4
	sub	a1, s0, a1
	lw	a1, 756(a1)                     # 4-byte Folded Reload
	.loc	2 509 28                        # rnd_output0.c:509:28
	lui	a2, %hi(g_1662)
	sw	a0, %lo(g_1662)(a2)
	li	a0, 0
.Ltmp266:
	.loc	2 510 36 is_stmt 1              # rnd_output0.c:510:36
	sb	a0, 564(a1)
	.loc	2 510 26 is_stmt 0              # rnd_output0.c:510:26
	j	.LBB0_230
.LBB0_230:                              #   Parent Loop BB0_200 Depth=1
                                        #     Parent Loop BB0_206 Depth=2
                                        # =>    This Inner Loop Header: Depth=3
.Ltmp267:
	.loc	2 510 49                        # rnd_output0.c:510:49
	lui	a0, 4
	sub	a0, s0, a0
	lw	a0, 756(a0)                     # 4-byte Folded Reload
	lb	a0, 564(a0)
	li	a1, 29
.Ltmp268:
	.loc	2 510 21                        # rnd_output0.c:510:21
	beq	a0, a1, .LBB0_235
	j	.LBB0_231
.LBB0_231:                              #   in Loop: Header=BB0_230 Depth=3
	.loc	2 0 21                          # rnd_output0.c:0:21
	lui	a0, 4
	sub	a0, s0, a0
	lw	a0, 744(a0)                     # 4-byte Folded Reload
	lui	a1, 4
	sub	a1, s0, a1
	lw	a2, 756(a1)                     # 4-byte Folded Reload
	lui	a1, 4
	sub	a1, s0, a1
	lw	a4, 748(a1)                     # 4-byte Folded Reload
	lui	a1, 1648
	addi	a1, a1, 1300
.Ltmp269:
	.loc	2 512 34 is_stmt 1              # rnd_output0.c:512:34
	sw	a1, 1908(a4)
	.loc	2 513 55                        # rnd_output0.c:513:55
	lui	a3, %hi(g_588)
	addi	a6, a3, %lo(g_588)
	lui	a1, 4
	sub	a1, s0, a1
	sw	a6, 260(a1)                     # 4-byte Folded Spill
	sw	a6, 1668(a4)
	sw	a6, 1672(a4)
	addi	a5, s0, -2048
	addi	a5, a5, -857
	.loc	2 513 71 is_stmt 0              # rnd_output0.c:513:71
	lui	a1, 4
	sub	a1, s0, a1
	sw	a5, 264(a1)                     # 4-byte Folded Spill
	sw	a5, 1676(a4)
	sw	a6, 1680(a4)
	.loc	2 513 88                        # rnd_output0.c:513:88
	sw	a6, 1684(a4)
	sw	a5, 1688(a4)
	.loc	2 513 105                       # rnd_output0.c:513:105
	sw	a6, 1692(a4)
	sw	a6, 1696(a4)
	li	a1, 0
	.loc	2 513 121                       # rnd_output0.c:513:121
	sw	a1, 1700(a4)
	sw	a6, 1704(a4)
	.loc	2 513 139                       # rnd_output0.c:513:139
	sw	a6, 1708(a4)
	sw	a5, 1712(a4)
	.loc	2 513 156                       # rnd_output0.c:513:156
	sw	a6, 1716(a4)
	sw	a6, 1720(a4)
	.loc	2 513 172                       # rnd_output0.c:513:172
	sw	a5, 1724(a4)
	sw	a6, 1728(a4)
	.loc	2 513 189                       # rnd_output0.c:513:189
	sw	a6, 1732(a4)
	sw	a5, 1736(a4)
	.loc	2 513 206                       # rnd_output0.c:513:206
	sw	a6, 1740(a4)
	sw	a6, 1744(a4)
	.loc	2 513 224                       # rnd_output0.c:513:224
	sw	a1, 1748(a4)
	sw	a6, 1752(a4)
	.loc	2 513 242                       # rnd_output0.c:513:242
	sw	a6, 1756(a4)
	sw	a5, 1760(a4)
	.loc	2 513 259                       # rnd_output0.c:513:259
	sw	a6, 1764(a4)
	sw	a6, 1768(a4)
	.loc	2 513 275                       # rnd_output0.c:513:275
	sw	a5, 1772(a4)
	sw	a6, 1776(a4)
	.loc	2 513 292                       # rnd_output0.c:513:292
	sw	a6, 1780(a4)
	sw	a5, 1784(a4)
	.loc	2 513 309                       # rnd_output0.c:513:309
	sw	a6, 1788(a4)
	sw	a6, 1792(a4)
	.loc	2 513 325                       # rnd_output0.c:513:325
	sw	a1, 1796(a4)
	sw	a6, 1800(a4)
	.loc	2 513 343                       # rnd_output0.c:513:343
	sw	a6, 1804(a4)
	sw	a5, 1808(a4)
	.loc	2 513 360                       # rnd_output0.c:513:360
	sw	a6, 1812(a4)
	sw	a6, 1816(a4)
	.loc	2 513 376                       # rnd_output0.c:513:376
	sw	a5, 1820(a4)
	sw	a6, 1824(a4)
	.loc	2 513 395                       # rnd_output0.c:513:395
	sw	a6, 1828(a4)
	sw	a5, 1832(a4)
	.loc	2 513 412                       # rnd_output0.c:513:412
	sw	a6, 1836(a4)
	sw	a6, 1840(a4)
	.loc	2 513 428                       # rnd_output0.c:513:428
	sw	a1, 1844(a4)
	sw	a6, 1848(a4)
	.loc	2 513 446                       # rnd_output0.c:513:446
	sw	a6, 1852(a4)
	sw	a5, 1856(a4)
	.loc	2 513 463                       # rnd_output0.c:513:463
	sw	a6, 1860(a4)
	sw	a6, 1864(a4)
	.loc	2 513 479                       # rnd_output0.c:513:479
	sw	a5, 1868(a4)
	sw	a6, 1872(a4)
	.loc	2 513 496                       # rnd_output0.c:513:496
	sw	a6, 1876(a4)
	sw	a5, 1880(a4)
	.loc	2 513 513                       # rnd_output0.c:513:513
	sw	a6, 1884(a4)
	sw	a6, 1888(a4)
	.loc	2 513 529                       # rnd_output0.c:513:529
	sw	a1, 1892(a4)
	sw	a6, 1896(a4)
	.loc	2 513 547                       # rnd_output0.c:513:547
	sw	a6, 1900(a4)
	sw	a5, 1904(a4)
	li	a5, 3
	.loc	2 514 33 is_stmt 1              # rnd_output0.c:514:33
	sw	a5, 1664(a4)
	lui	a5, 603653
	addi	a5, a5, 836
	.loc	2 515 33                        # rnd_output0.c:515:33
	sw	a5, 1660(a4)
	li	a5, -5
	.loc	2 516 33                        # rnd_output0.c:516:33
	sw	a5, 1656(a4)
	lui	a5, 404086
	addi	a5, a5, -1146
	.loc	2 517 33                        # rnd_output0.c:517:33
	sw	a5, 1652(a4)
	.loc	2 518 34                        # rnd_output0.c:518:34
	sw	a1, 1648(a4)
	.loc	2 520 40                        # rnd_output0.c:520:40
	lbu	a3, %lo(g_588)(a3)
	.loc	2 520 49 is_stmt 0              # rnd_output0.c:520:49
	lw	a6, -48(s0)
	.loc	2 520 88                        # rnd_output0.c:520:88
	lw	a5, 1920(a4)
	.loc	2 520 54                        # rnd_output0.c:520:54
	sltu	a5, a5, a6
	xori	a5, a5, 1
	.loc	2 520 46                        # rnd_output0.c:520:46
	and	a3, a3, a5
	.loc	2 520 96                        # rnd_output0.c:520:96
	lw	a4, 1908(a4)
	.loc	2 520 94                        # rnd_output0.c:520:94
	sltu	a4, a3, a4
	.loc	2 520 27                        # rnd_output0.c:520:27
	lw	a3, 468(a2)
	.loc	2 520 35                        # rnd_output0.c:520:35
	lw	a2, 0(a3)
	or	a2, a2, a4
	sw	a2, 0(a3)
	.loc	2 521 193 is_stmt 1             # rnd_output0.c:521:193
	lw	a2, 700(a0)
	.loc	2 521 201 is_stmt 0             # rnd_output0.c:521:201
	lui	a0, %hi(g_1374)
	lw	a0, %lo(g_1374)(a0)
	.loc	2 521 200                       # rnd_output0.c:521:200
	lhu	a0, 0(a0)
	.loc	2 521 196                       # rnd_output0.c:521:196
	slt	a0, a0, a2
	xori	a0, a0, 1
	.loc	2 521 211                       # rnd_output0.c:521:211
	lw	a3, -36(s0)
	lw	a2, -40(s0)
	.loc	2 521 150                       # rnd_output0.c:521:150
	call	safe_add_func_int64_t_s_s
	.loc	2 521 117                       # rnd_output0.c:521:117
	slli	a0, a0, 24
	srai	a1, a0, 24
	li	a0, -120
	call	safe_mod_func_int8_t_s_s
	li	a1, 1
	.loc	2 521 220                       # rnd_output0.c:521:220
	lui	a2, 4
	sub	a2, s0, a2
	sw	a1, 268(a2)                     # 4-byte Folded Spill
	bnez	a0, .LBB0_233
	j	.LBB0_232
.LBB0_232:                              #   in Loop: Header=BB0_230 Depth=3
	.loc	2 521 259                       # rnd_output0.c:521:259
	lui	a0, 4
	sub	a0, s0, a0
	lw	a1, 748(a0)                     # 4-byte Folded Reload
	lw	a0, 1648(a1)
	addi	a0, a0, 1
	lui	a2, 4
	sub	a2, s0, a2
	sw	a0, 256(a2)                     # 4-byte Folded Spill
	sw	a0, 1648(a1)
	.loc	2 521 329                       # rnd_output0.c:521:329
	lui	a0, %hi(g_1662)
	lb	a0, %lo(g_1662)(a0)
	.loc	2 521 345                       # rnd_output0.c:521:345
	lui	a1, %hi(g_69)
	addi	a1, a1, %lo(g_69)
	lb	a1, 36(a1)
	.loc	2 521 304                       # rnd_output0.c:521:304
	call	safe_mul_func_int8_t_s_s
	.loc	2 521 353                       # rnd_output0.c:521:353
	lw	a1, -44(s0)
	.loc	2 521 358                       # rnd_output0.c:521:358
	slti	a1, a1, 2
	.loc	2 521 350                       # rnd_output0.c:521:350
	xor	a0, a0, a1
	li	a1, 20
	.loc	2 521 273                       # rnd_output0.c:521:273
	call	safe_rshift_func_int32_t_s_u
	lui	a1, 4
	sub	a1, s0, a1
	lw	a2, 256(a1)                     # 4-byte Folded Reload
	lui	a1, 4
	sub	a1, s0, a1
	lw	a1, 740(a1)                     # 4-byte Folded Reload
	.loc	2 521 269                       # rnd_output0.c:521:269
	sltu	a0, a0, a2
	xori	a0, a0, 1
	.loc	2 521 405                       # rnd_output0.c:521:405
	lw	a1, 0(a1)
	.loc	2 521 402                       # rnd_output0.c:521:402
	xor	a0, a0, a1
	snez	a0, a0
	.loc	2 521 415                       # rnd_output0.c:521:415
	lw	a1, -28(s0)
	lw	a2, -32(s0)
	.loc	2 521 413                       # rnd_output0.c:521:413
	xor	a2, a2, a0
	lui	a0, 16
	addi	a0, a0, -6
	.loc	2 521 421                       # rnd_output0.c:521:421
	sltu	a0, a0, a2
	snez	a1, a1
	or	a0, a0, a1
	.loc	2 521 434                       # rnd_output0.c:521:434
	lw	a1, -40(s0)
	.loc	2 521 225                       # rnd_output0.c:521:225
	call	safe_lshift_func_int32_t_s_u
	.loc	2 521 441                       # rnd_output0.c:521:441
	slti	a0, a0, 103
	.loc	2 521 220                       # rnd_output0.c:521:220
	lui	a1, 4
	sub	a1, s0, a1
	sw	a0, 268(a1)                     # 4-byte Folded Spill
	j	.LBB0_233
.LBB0_233:                              #   in Loop: Header=BB0_230 Depth=3
	.loc	2 0 220                         # rnd_output0.c:0:220
	lui	a0, 4
	sub	a0, s0, a0
	lw	a0, 268(a0)                     # 4-byte Folded Reload
	.loc	2 521 220                       # rnd_output0.c:521:220
	andi	a0, a0, 1
	li	a1, 1
	.loc	2 521 89                        # rnd_output0.c:521:89
	call	safe_div_func_uint8_t_u_u
	.loc	2 521 462                       # rnd_output0.c:521:462
	lw	a1, -28(s0)
	lw	a2, -32(s0)
	.loc	2 521 459                       # rnd_output0.c:521:459
	xor	a0, a0, a2
	or	a0, a0, a1
	seqz	a2, a0
	lui	a0, 361022
	addi	a0, a0, 1565
	lui	a1, 360308
	addi	a1, a1, 1787
	li	a3, 0
	.loc	2 521 39                        # rnd_output0.c:521:39
	call	safe_mul_func_int64_t_s_s
	mv	a2, a0
	lui	a0, 4
	sub	a0, s0, a0
	lw	a0, 756(a0)                     # 4-byte Folded Reload
	.loc	2 521 27                        # rnd_output0.c:521:27
	lw	a1, 468(a0)
	.loc	2 521 35                        # rnd_output0.c:521:35
	lw	a0, 0(a1)
	and	a0, a0, a2
	sw	a0, 0(a1)
	.loc	2 522 21 is_stmt 1              # rnd_output0.c:522:21
	j	.LBB0_234
.Ltmp270:
.LBB0_234:                              #   in Loop: Header=BB0_230 Depth=3
	.loc	2 510 60                        # rnd_output0.c:510:60
	lui	a0, 4
	sub	a0, s0, a0
	lw	a1, 756(a0)                     # 4-byte Folded Reload
	lbu	a0, 564(a1)
	addi	a0, a0, 1
	sb	a0, 564(a1)
	.loc	2 510 21 is_stmt 0              # rnd_output0.c:510:21
	j	.LBB0_230
.Ltmp271:
.LBB0_235:                              #   in Loop: Header=BB0_206 Depth=2
	.loc	2 523 27 is_stmt 1              # rnd_output0.c:523:27
	lw	a0, -24(s0)
	.loc	2 523 26 is_stmt 0              # rnd_output0.c:523:26
	lw	a0, 0(a0)
.Ltmp272:
	.loc	2 523 25                        # rnd_output0.c:523:25
	beqz	a0, .LBB0_237
	j	.LBB0_236
.LBB0_236:                              #   in Loop: Header=BB0_200 Depth=1
.Ltmp273:
	.loc	2 524 25 is_stmt 1              # rnd_output0.c:524:25
	j	.LBB0_245
.Ltmp274:
.LBB0_237:                              #   in Loop: Header=BB0_206 Depth=2
	.loc	2 525 17                        # rnd_output0.c:525:17
	j	.LBB0_243
.Ltmp275:
.LBB0_238:                              #   in Loop: Header=BB0_206 Depth=2
	.loc	2 0 17 is_stmt 0                # rnd_output0.c:0:17
	lui	a0, 4
	sub	a0, s0, a0
	lw	a0, 748(a0)                     # 4-byte Folded Reload
	lui	a1, 287220
	addi	a1, a1, 1567
.Ltmp276:
	.loc	2 528 30 is_stmt 1              # rnd_output0.c:528:30
	sw	a1, 1632(a0)
	sw	a1, 1628(a0)
	sw	a1, 1624(a0)
	sw	a1, 1620(a0)
	.loc	2 530 21                        # rnd_output0.c:530:21
	lh	a1, 1622(a0)
	addi	a1, a1, -1
	sh	a1, 1622(a0)
.Ltmp277:
	.loc	2 531 26                        # rnd_output0.c:531:26
	lhu	a0, 1622(a0)
	.loc	2 531 36 is_stmt 0              # rnd_output0.c:531:36
	beqz	a0, .LBB0_241
	j	.LBB0_239
.LBB0_239:                              #   in Loop: Header=BB0_206 Depth=2
	.loc	2 531 41                        # rnd_output0.c:531:41
	lui	a0, 4
	sub	a0, s0, a0
	lw	a0, 736(a0)                     # 4-byte Folded Reload
	lw	a0, 1372(a0)
	.loc	2 531 40                        # rnd_output0.c:531:40
	lw	a0, 0(a0)
.Ltmp278:
	.loc	2 531 25                        # rnd_output0.c:531:25
	beqz	a0, .LBB0_241
	j	.LBB0_240
.LBB0_240:                              #   in Loop: Header=BB0_206 Depth=2
.Ltmp279:
	.loc	2 533 33 is_stmt 1              # rnd_output0.c:533:33
	lui	a0, 4
	sub	a0, s0, a0
	lw	a1, 748(a0)                     # 4-byte Folded Reload
	lui	a0, 4
	sub	a0, s0, a0
	lw	a2, 744(a0)                     # 4-byte Folded Reload
	lui	a0, %hi(g_197)
	addi	a0, a0, %lo(g_197)
	addi	a3, a0, 10
	sw	a3, 1612(a1)
	lui	a3, 3
	addi	a3, a3, 1428
	sub	a3, s0, a3
	.loc	2 534 34                        # rnd_output0.c:534:34
	sw	a3, 1608(a1)
	.loc	2 535 35                        # rnd_output0.c:535:35
	lui	a3, %hi(g_388)
	addi	a3, a3, %lo(g_388)
	sw	a3, 1604(a1)
	.loc	2 536 47                        # rnd_output0.c:536:47
	lw	a2, 20(a2)
	.loc	2 536 55 is_stmt 0              # rnd_output0.c:536:55
	addi	a0, a0, 16
	sw	a0, 0(a2)
	.loc	2 536 77                        # rnd_output0.c:536:77
	lw	a1, 1608(a1)
	.loc	2 536 85                        # rnd_output0.c:536:85
	sw	a0, 0(a1)
	.loc	2 536 152                       # rnd_output0.c:536:152
	lw	a0, -40(s0)
	li	a1, 7
	.loc	2 536 122                       # rnd_output0.c:536:122
	call	safe_rshift_func_uint32_t_u_u
	lui	a1, 4
	sub	a1, s0, a1
	lw	a1, 744(a1)                     # 4-byte Folded Reload
                                        # kill: def $x12 killed $x10
	.loc	2 536 188                       # rnd_output0.c:536:188
	lui	a0, 4
	sub	a0, s0, a0
	lw	a0, 740(a0)                     # 4-byte Folded Reload
	lw	a0, 32(a0)
	.loc	2 536 186                       # rnd_output0.c:536:186
	sw	a0, 8(a1)
	lui	a0, 1030560
	addi	a0, a0, 759
	lui	a1, 870637
	addi	a1, a1, 872
	.loc	2 536 227                       # rnd_output0.c:536:227
	call	safe_unary_minus_func_int64_t_s
                                        # kill: def $x12 killed $x10
	lui	a0, 4
	sub	a0, s0, a0
	lw	a0, 748(a0)                     # 4-byte Folded Reload
                                        # kill: def $x12 killed $x11
	.loc	2 536 108                       # rnd_output0.c:536:108
	lui	a1, 4
	sub	a1, s0, a1
	lw	a1, 740(a1)                     # 4-byte Folded Reload
	lw	a2, 1604(a0)
	li	a0, 1
	.loc	2 536 116                       # rnd_output0.c:536:116
	sh	a0, 0(a2)
	.loc	2 536 32                        # rnd_output0.c:536:32
	lw	a0, 0(a1)
	andi	a0, a0, 1
	sw	a0, 0(a1)
	.loc	2 537 28 is_stmt 1              # rnd_output0.c:537:28
	lui	a0, %hi(g_1126)
	lw	a0, %lo(g_1126)(a0)
	.loc	2 537 27 is_stmt 0              # rnd_output0.c:537:27
	lw	a1, 0(a0)
	addi	a0, s0, -44
	.loc	2 537 36                        # rnd_output0.c:537:36
	sw	a0, 0(a1)
	.loc	2 538 21 is_stmt 1              # rnd_output0.c:538:21
	j	.LBB0_242
.Ltmp280:
.LBB0_241:                              #   in Loop: Header=BB0_206 Depth=2
	.loc	2 541 35                        # rnd_output0.c:541:35
	lui	a0, 4
	sub	a0, s0, a0
	lw	a0, 748(a0)                     # 4-byte Folded Reload
	lui	a1, %hi(g_1292)
	addi	a1, a1, %lo(g_1292)
	sw	a1, 1600(a0)
	.loc	2 542 36                        # rnd_output0.c:542:36
	lw	a0, 1600(a0)
	.loc	2 542 27 is_stmt 0              # rnd_output0.c:542:27
	lw	a1, -652(s0)
	.loc	2 542 34                        # rnd_output0.c:542:34
	sw	a0, 0(a1)
	j	.LBB0_242
.Ltmp281:
.LBB0_242:                              #   in Loop: Header=BB0_206 Depth=2
	.loc	2 0 34                          # rnd_output0.c:0:34
	j	.LBB0_243
.LBB0_243:                              #   in Loop: Header=BB0_206 Depth=2
	.loc	2 545 13 is_stmt 1              # rnd_output0.c:545:13
	j	.LBB0_244
.Ltmp282:
.LBB0_244:                              #   in Loop: Header=BB0_206 Depth=2
	.loc	2 471 79                        # rnd_output0.c:471:79
	lui	a0, %hi(g_13)
	lui	a1, 4
	sub	a1, s0, a1
	sw	a0, 252(a1)                     # 4-byte Folded Spill
	lw	a0, %lo(g_13)(a0)
	srai	a1, a0, 31
	li	a2, 8
	li	a3, 0
	.loc	2 471 53 is_stmt 0              # rnd_output0.c:471:53
	call	safe_sub_func_int64_t_s_s
                                        # kill: def $x12 killed $x11
	.loc	2 471 51                        # rnd_output0.c:471:51
	lui	a1, 4
	sub	a1, s0, a1
	lw	a1, 252(a1)                     # 4-byte Folded Reload
	sw	a0, %lo(g_13)(a1)
	.loc	2 471 13                        # rnd_output0.c:471:13
	j	.LBB0_206
.Ltmp283:
.LBB0_245:                              #   in Loop: Header=BB0_200 Depth=1
	.loc	2 546 9 is_stmt 1               # rnd_output0.c:546:9
	j	.LBB0_246
.Ltmp284:
.LBB0_246:                              #   in Loop: Header=BB0_200 Depth=1
	.loc	2 458 75                        # rnd_output0.c:458:75
	lui	a0, %hi(g_89)
	lui	a1, 4
	sub	a1, s0, a1
	sw	a0, 248(a1)                     # 4-byte Folded Spill
	lhu	a0, %lo(g_89)(a0)
	li	a1, 4
	.loc	2 458 48 is_stmt 0              # rnd_output0.c:458:48
	call	safe_add_func_uint16_t_u_u
	lui	a1, 4
	sub	a1, s0, a1
	lw	a1, 248(a1)                     # 4-byte Folded Reload
	.loc	2 458 46                        # rnd_output0.c:458:46
	sh	a0, %lo(g_89)(a1)
	.loc	2 458 9                         # rnd_output0.c:458:9
	j	.LBB0_200
.Ltmp285:
.LBB0_247:
	.loc	2 547 5 is_stmt 1               # rnd_output0.c:547:5
	j	.LBB0_253
.Ltmp286:
.LBB0_248:
	.loc	2 0 5 is_stmt 0                 # rnd_output0.c:0:5
	lui	a0, 4
	sub	a0, s0, a0
	lw	a1, 748(a0)                     # 4-byte Folded Reload
	li	a0, -1
.Ltmp287:
	.loc	2 550 18 is_stmt 1              # rnd_output0.c:550:18
	sw	a0, 1596(a1)
	li	a0, -9
	.loc	2 551 17                        # rnd_output0.c:551:17
	sw	a0, 1592(a1)
	.loc	2 552 26                        # rnd_output0.c:552:26
	lui	a0, %hi(.L__const.func_40.l_1752)
	lw	a0, %lo(.L__const.func_40.l_1752)(a0)
	sw	a0, 1588(a1)
.Ltmp288:
	.loc	2 554 19                        # rnd_output0.c:554:19
	lui	a1, %hi(g_13)
	li	a0, 0
	sw	a0, %lo(g_13)(a1)
	.loc	2 554 14 is_stmt 0              # rnd_output0.c:554:14
	j	.LBB0_249
.LBB0_249:                              # =>This Inner Loop Header: Depth=1
.Ltmp289:
	.loc	2 554 25                        # rnd_output0.c:554:25
	lui	a0, %hi(g_13)
	lw	a0, %lo(g_13)(a0)
	li	a1, -13
.Ltmp290:
	.loc	2 554 9                         # rnd_output0.c:554:9
	bne	a0, a1, .LBB0_252
	j	.LBB0_250
.LBB0_250:                              #   in Loop: Header=BB0_249 Depth=1
.Ltmp291:
	.loc	2 556 21 is_stmt 1              # rnd_output0.c:556:21
	lui	a0, %hi(.L__const.func_40.l_1708)
	addi	a1, a0, %lo(.L__const.func_40.l_1708)
	lui	a0, 3
	addi	a0, a0, 1512
	sub	a0, s0, a0
	li	a2, 56
	call	memcpy@plt
	lui	a0, 4
	sub	a0, s0, a0
	lw	a1, 748(a0)                     # 4-byte Folded Reload
	li	a0, 0
	.loc	2 557 22                        # rnd_output0.c:557:22
	lui	a2, 4
	sub	a2, s0, a2
	sw	a0, 224(a2)                     # 4-byte Folded Spill
	sw	a0, 1524(a1)
	li	a0, -1
	.loc	2 558 21                        # rnd_output0.c:558:21
	sw	a0, 1520(a1)
	.loc	2 559 22                        # rnd_output0.c:559:22
	lui	a0, %hi(.L__const.func_40.l_1775)
	addi	a1, a0, %lo(.L__const.func_40.l_1775)
	lui	a0, 4
	addi	a0, a0, -1616
	sub	a0, s0, a0
	li	a2, 960
	call	memcpy@plt
	lui	a0, 4
	sub	a0, s0, a0
	lw	a2, 748(a0)                     # 4-byte Folded Reload
	lui	a0, 4
	sub	a0, s0, a0
	lw	a1, 224(a0)                     # 4-byte Folded Reload
	.loc	2 560 45                        # rnd_output0.c:560:45
	addi	a6, s0, -2048
	addi	a6, a6, -404
	.loc	2 560 43 is_stmt 0              # rnd_output0.c:560:43
	lui	a0, 4
	sub	a0, s0, a0
	sw	a6, 228(a0)                     # 4-byte Folded Spill
	sw	a6, 0(a2)
	lui	a0, %hi(g_1548)
	addi	a5, a0, %lo(g_1548)
	sw	a5, 4(a2)
	lui	a0, 3
	addi	a0, a0, 1444
	sub	a0, s0, a0
	lui	a3, 4
	sub	a3, s0, a3
	sw	a0, 232(a3)                     # 4-byte Folded Spill
	sw	a0, 8(a2)
	addi	a3, s0, -2048
	addi	a3, a3, -1012
	lui	a4, 4
	sub	a4, s0, a4
	sw	a3, 236(a4)                     # 4-byte Folded Spill
	sw	a3, 12(a2)
	sw	a3, 16(a2)
	.loc	2 560 98                        # rnd_output0.c:560:98
	addi	a7, s0, -2048
	addi	a7, a7, -396
	.loc	2 560 96                        # rnd_output0.c:560:96
	lui	a4, 4
	sub	a4, s0, a4
	sw	a7, 240(a4)                     # 4-byte Folded Spill
	sw	a7, 20(a2)
	sw	a0, 24(a2)
	sw	a7, 28(a2)
	lui	a4, %hi(g_1662)
	addi	t0, a4, %lo(g_1662)
	sw	t0, 32(a2)
	lui	a4, %hi(g_302)
	addi	a4, a4, %lo(g_302)
	lui	t1, 4
	sub	t1, s0, t1
	sw	a4, 244(t1)                     # 4-byte Folded Spill
	sw	a4, 36(a2)
	.loc	2 560 153                       # rnd_output0.c:560:153
	sw	a6, 40(a2)
	sw	a3, 44(a2)
	sw	a0, 48(a2)
	sw	a3, 52(a2)
	sw	a3, 56(a2)
	.loc	2 560 203                       # rnd_output0.c:560:203
	sw	a0, 60(a2)
	sw	a0, 64(a2)
	sw	a0, 68(a2)
	sw	t0, 72(a2)
	sw	a4, 76(a2)
	.loc	2 560 244                       # rnd_output0.c:560:244
	sw	a6, 80(a2)
	sw	a5, 84(a2)
	sw	a0, 88(a2)
	sw	a3, 92(a2)
	sw	a3, 96(a2)
	.loc	2 560 297                       # rnd_output0.c:560:297
	sw	a7, 100(a2)
	sw	a0, 104(a2)
	sw	a7, 108(a2)
	sw	t0, 112(a2)
	sw	a4, 116(a2)
	.loc	2 560 354                       # rnd_output0.c:560:354
	sw	a6, 120(a2)
	sw	a3, 124(a2)
	sw	a0, 128(a2)
	sw	a3, 132(a2)
	sw	a3, 136(a2)
	.loc	2 560 406                       # rnd_output0.c:560:406
	sw	a0, 140(a2)
	sw	a0, 144(a2)
	sw	a0, 148(a2)
	sw	t0, 152(a2)
	sw	a4, 156(a2)
	.loc	2 560 447                       # rnd_output0.c:560:447
	sw	a6, 160(a2)
	sw	a5, 164(a2)
	sw	a0, 168(a2)
	sw	a3, 172(a2)
	sw	a3, 176(a2)
	.loc	2 560 500                       # rnd_output0.c:560:500
	sw	a7, 180(a2)
	sw	a0, 184(a2)
	sw	a7, 188(a2)
	sw	t0, 192(a2)
	sw	a4, 196(a2)
	.loc	2 560 557                       # rnd_output0.c:560:557
	sw	a6, 200(a2)
	sw	a3, 204(a2)
	sw	a0, 208(a2)
	sw	a3, 212(a2)
	sw	a3, 216(a2)
	.loc	2 560 607                       # rnd_output0.c:560:607
	sw	a0, 220(a2)
	sw	a0, 224(a2)
	sw	a0, 228(a2)
	sw	t0, 232(a2)
	sw	a4, 236(a2)
	.loc	2 560 648                       # rnd_output0.c:560:648
	sw	a6, 240(a2)
	sw	a5, 244(a2)
	sw	a0, 248(a2)
	sw	a3, 252(a2)
	sw	a3, 256(a2)
	.loc	2 560 701                       # rnd_output0.c:560:701
	sw	a7, 260(a2)
	sw	a0, 264(a2)
	sw	a7, 268(a2)
	sw	a3, 272(a2)
	sw	a7, 276(a2)
	.loc	2 560 769                       # rnd_output0.c:560:769
	sw	a1, 280(a2)
	sw	a3, 284(a2)
	sw	a3, 288(a2)
	sw	a0, 292(a2)
	sw	a6, 296(a2)
	.loc	2 560 820                       # rnd_output0.c:560:820
	sw	a4, 300(a2)
	.loc	2 560 829                       # rnd_output0.c:560:829
	addi	a5, s0, -2048
	addi	a5, a5, -460
	.loc	2 560 820                       # rnd_output0.c:560:820
	sw	a5, 304(a2)
	sw	a4, 308(a2)
	sw	a3, 312(a2)
	sw	a0, 316(a2)
	.loc	2 560 868                       # rnd_output0.c:560:868
	sw	a1, 320(a2)
	sw	a1, 324(a2)
	sw	a3, 328(a2)
	sw	a6, 332(a2)
	sw	a6, 336(a2)
	.loc	2 560 928                       # rnd_output0.c:560:928
	sw	a1, 340(a2)
	sw	a5, 344(a2)
	sw	a1, 348(a2)
	sw	a3, 352(a2)
	sw	a7, 356(a2)
	.loc	2 560 988                       # rnd_output0.c:560:988
	sw	a1, 360(a2)
	sw	a3, 364(a2)
	sw	a3, 368(a2)
	sw	a0, 372(a2)
	sw	a6, 376(a2)
	.loc	2 560 1039                      # rnd_output0.c:560:1039
	sw	a4, 380(a2)
	sw	a5, 384(a2)
	sw	a4, 388(a2)
	sw	a3, 392(a2)
	sw	a0, 396(a2)
	.loc	2 560 1087                      # rnd_output0.c:560:1087
	sw	a1, 400(a2)
	sw	a1, 404(a2)
	sw	a3, 408(a2)
	sw	a6, 412(a2)
	sw	a6, 416(a2)
	.loc	2 560 1149                      # rnd_output0.c:560:1149
	sw	a1, 420(a2)
	sw	a5, 424(a2)
	sw	a1, 428(a2)
	sw	a3, 432(a2)
	sw	a7, 436(a2)
	.loc	2 560 1209                      # rnd_output0.c:560:1209
	sw	a1, 440(a2)
	sw	a3, 444(a2)
	sw	a3, 448(a2)
	sw	a0, 452(a2)
	sw	a6, 456(a2)
	.loc	2 560 1260                      # rnd_output0.c:560:1260
	sw	a4, 460(a2)
	sw	a5, 464(a2)
	sw	a4, 468(a2)
	sw	a3, 472(a2)
	sw	a0, 476(a2)
	.loc	2 560 1308                      # rnd_output0.c:560:1308
	sw	a1, 480(a2)
	sw	a1, 484(a2)
	sw	a3, 488(a2)
	sw	a6, 492(a2)
	sw	a6, 496(a2)
	.loc	2 560 1368                      # rnd_output0.c:560:1368
	sw	a1, 500(a2)
	sw	a5, 504(a2)
	sw	a1, 508(a2)
	sw	a3, 512(a2)
	sw	a7, 516(a2)
	.loc	2 560 1428                      # rnd_output0.c:560:1428
	sw	a1, 520(a2)
	sw	a3, 524(a2)
	sw	a3, 528(a2)
	sw	a0, 532(a2)
	sw	a6, 536(a2)
	.loc	2 560 1479                      # rnd_output0.c:560:1479
	sw	a4, 540(a2)
	sw	a5, 544(a2)
	sw	a4, 548(a2)
	sw	a3, 552(a2)
	sw	a0, 556(a2)
	lui	a0, 4
	addi	a0, a0, -1016
	sub	a0, s0, a0
	li	a2, 40
	.loc	2 561 24 is_stmt 1              # rnd_output0.c:561:24
	call	memset@plt
	.loc	2 562 21                        # rnd_output0.c:562:21
	lui	a0, %hi(.L__const.func_40.l_1827)
	addi	a1, a0, %lo(.L__const.func_40.l_1827)
	lui	a0, 4
	addi	a0, a0, -776
	sub	a0, s0, a0
	li	a2, 240
	call	memcpy@plt
	.loc	2 564 9                         # rnd_output0.c:564:9
	j	.LBB0_251
.Ltmp292:
.LBB0_251:                              #   in Loop: Header=BB0_249 Depth=1
	.loc	2 554 41                        # rnd_output0.c:554:41
	lui	a1, %hi(g_13)
	lw	a0, %lo(g_13)(a1)
	addi	a0, a0, -1
	sw	a0, %lo(g_13)(a1)
	.loc	2 554 9 is_stmt 0               # rnd_output0.c:554:9
	j	.LBB0_249
.Ltmp293:
.LBB0_252:
	.loc	2 0 9                           # rnd_output0.c:0:9
	j	.LBB0_253
.LBB0_253:
	.loc	2 566 12 is_stmt 1              # rnd_output0.c:566:12
	lui	a0, 4
	sub	a0, s0, a0
	lw	a0, 756(a0)                     # 4-byte Folded Reload
	lw	a0, 372(a0)
	.loc	2 566 5 is_stmt 0               # rnd_output0.c:566:5
	sw	a0, -20(s0)
	j	.LBB0_254
.LBB0_254:
	.loc	2 567 1 is_stmt 1               # rnd_output0.c:567:1
	lw	a0, -20(s0)
	.loc	2 567 1 epilogue_begin is_stmt 0 # rnd_output0.c:567:1
	lui	a1, 3
	addi	a1, a1, 1840
	add	sp, sp, a1
	lw	ra, 2028(sp)                    # 4-byte Folded Reload
	lw	s0, 2024(sp)                    # 4-byte Folded Reload
	lw	s1, 2020(sp)                    # 4-byte Folded Reload
	addi	sp, sp, 2032
	ret
.Ltmp294:
.Lfunc_end0:
	.size	func_40, .Lfunc_end0-func_40
	.cfi_endproc
                                        # -- End function
	.p2align	1                               # -- Begin function safe_mul_func_int64_t_s_s
	.type	safe_mul_func_int64_t_s_s,@function
safe_mul_func_int64_t_s_s:              # @safe_mul_func_int64_t_s_s
.Lfunc_begin1:
	.file	6 "/home/shiyanchu/outline_test" "linx-mcu-test/Public/tools/csmith/runtime_x86/safe_math.h"
	.loc	6 448 0 is_stmt 1               # linx-mcu-test/Public/tools/csmith/runtime_x86/safe_math.h:448:0
	.cfi_startproc
# %bb.0:
	addi	sp, sp, -160
	.cfi_def_cfa_offset 160
	sw	ra, 156(sp)                     # 4-byte Folded Spill
	sw	s0, 152(sp)                     # 4-byte Folded Spill
	.cfi_offset ra, -4
	.cfi_offset s0, -8
	addi	s0, sp, 160
	.cfi_def_cfa s0, 0
                                        # kill: def $x14 killed $x13
                                        # kill: def $x14 killed $x12
                                        # kill: def $x14 killed $x11
                                        # kill: def $x14 killed $x10
	sw	a1, -12(s0)
	sw	a0, -16(s0)
	sw	a3, -20(s0)
	sw	a2, -24(s0)
.Ltmp295:
	.loc	6 453 8 prologue_end            # linx-mcu-test/Public/tools/csmith/runtime_x86/safe_math.h:453:8
	lw	a1, -16(s0)
	lw	a0, -12(s0)
	.loc	6 453 12 is_stmt 0              # linx-mcu-test/Public/tools/csmith/runtime_x86/safe_math.h:453:12
	slti	a2, a0, 0
	sw	a2, -32(s0)                     # 4-byte Folded Spill
	seqz	a1, a1
	sw	a1, -28(s0)                     # 4-byte Folded Spill
	beqz	a0, .LBB1_2
# %bb.1:
	.loc	6 0 12                          # linx-mcu-test/Public/tools/csmith/runtime_x86/safe_math.h:0:12
	lw	a0, -32(s0)                     # 4-byte Folded Reload
	sw	a0, -28(s0)                     # 4-byte Folded Spill
.LBB1_2:
	.loc	6 453 12                        # linx-mcu-test/Public/tools/csmith/runtime_x86/safe_math.h:453:12
	lw	a0, -28(s0)                     # 4-byte Folded Reload
	.loc	6 453 17                        # linx-mcu-test/Public/tools/csmith/runtime_x86/safe_math.h:453:17
	bnez	a0, .LBB1_9
	j	.LBB1_3
.LBB1_3:
	.loc	6 453 21                        # linx-mcu-test/Public/tools/csmith/runtime_x86/safe_math.h:453:21
	lw	a1, -24(s0)
	lw	a0, -20(s0)
	.loc	6 453 25                        # linx-mcu-test/Public/tools/csmith/runtime_x86/safe_math.h:453:25
	slti	a2, a0, 0
	sw	a2, -40(s0)                     # 4-byte Folded Spill
	seqz	a1, a1
	sw	a1, -36(s0)                     # 4-byte Folded Spill
	beqz	a0, .LBB1_5
# %bb.4:
	.loc	6 0 25                          # linx-mcu-test/Public/tools/csmith/runtime_x86/safe_math.h:0:25
	lw	a0, -40(s0)                     # 4-byte Folded Reload
	sw	a0, -36(s0)                     # 4-byte Folded Spill
.LBB1_5:
	.loc	6 453 25                        # linx-mcu-test/Public/tools/csmith/runtime_x86/safe_math.h:453:25
	lw	a0, -36(s0)                     # 4-byte Folded Reload
	.loc	6 453 30                        # linx-mcu-test/Public/tools/csmith/runtime_x86/safe_math.h:453:30
	bnez	a0, .LBB1_9
	j	.LBB1_6
.LBB1_6:
	.loc	6 453 34                        # linx-mcu-test/Public/tools/csmith/runtime_x86/safe_math.h:453:34
	lw	a0, -16(s0)
	sw	a0, -56(s0)                     # 4-byte Folded Spill
	lw	a0, -12(s0)
	.loc	6 453 53                        # linx-mcu-test/Public/tools/csmith/runtime_x86/safe_math.h:453:53
	sw	a0, -52(s0)                     # 4-byte Folded Spill
	lw	a2, -24(s0)
	lw	a3, -20(s0)
	lui	a0, 524288
	addi	a1, a0, -1
	li	a0, -1
	.loc	6 453 51                        # linx-mcu-test/Public/tools/csmith/runtime_x86/safe_math.h:453:51
	call	__divdi3@plt
	lw	a3, -56(s0)                     # 4-byte Folded Reload
	mv	a2, a0
	lw	a0, -52(s0)                     # 4-byte Folded Reload
	.loc	6 453 38                        # linx-mcu-test/Public/tools/csmith/runtime_x86/safe_math.h:453:38
	slt	a4, a1, a0
	sw	a4, -48(s0)                     # 4-byte Folded Spill
	sltu	a2, a2, a3
	sw	a2, -44(s0)                     # 4-byte Folded Spill
	beq	a0, a1, .LBB1_8
# %bb.7:
	.loc	6 0 38                          # linx-mcu-test/Public/tools/csmith/runtime_x86/safe_math.h:0:38
	lw	a0, -48(s0)                     # 4-byte Folded Reload
	sw	a0, -44(s0)                     # 4-byte Folded Spill
.LBB1_8:
	.loc	6 453 38                        # linx-mcu-test/Public/tools/csmith/runtime_x86/safe_math.h:453:38
	lw	a0, -44(s0)                     # 4-byte Folded Reload
	.loc	6 453 60                        # linx-mcu-test/Public/tools/csmith/runtime_x86/safe_math.h:453:60
	bnez	a0, .LBB1_37
	j	.LBB1_9
.LBB1_9:
	.loc	6 453 65                        # linx-mcu-test/Public/tools/csmith/runtime_x86/safe_math.h:453:65
	lw	a1, -16(s0)
	lw	a0, -12(s0)
	.loc	6 453 69                        # linx-mcu-test/Public/tools/csmith/runtime_x86/safe_math.h:453:69
	slti	a2, a0, 0
	sw	a2, -64(s0)                     # 4-byte Folded Spill
	seqz	a1, a1
	sw	a1, -60(s0)                     # 4-byte Folded Spill
	beqz	a0, .LBB1_11
# %bb.10:
	.loc	6 0 69                          # linx-mcu-test/Public/tools/csmith/runtime_x86/safe_math.h:0:69
	lw	a0, -64(s0)                     # 4-byte Folded Reload
	sw	a0, -60(s0)                     # 4-byte Folded Spill
.LBB1_11:
	.loc	6 453 69                        # linx-mcu-test/Public/tools/csmith/runtime_x86/safe_math.h:453:69
	lw	a0, -60(s0)                     # 4-byte Folded Reload
	.loc	6 453 74                        # linx-mcu-test/Public/tools/csmith/runtime_x86/safe_math.h:453:74
	bnez	a0, .LBB1_18
	j	.LBB1_12
.LBB1_12:
	.loc	6 453 78                        # linx-mcu-test/Public/tools/csmith/runtime_x86/safe_math.h:453:78
	lw	a1, -24(s0)
	lw	a0, -20(s0)
	li	a2, 0
	.loc	6 453 82                        # linx-mcu-test/Public/tools/csmith/runtime_x86/safe_math.h:453:82
	slt	a2, a2, a0
	sw	a2, -72(s0)                     # 4-byte Folded Spill
	snez	a1, a1
	sw	a1, -68(s0)                     # 4-byte Folded Spill
	beqz	a0, .LBB1_14
# %bb.13:
	.loc	6 0 82                          # linx-mcu-test/Public/tools/csmith/runtime_x86/safe_math.h:0:82
	lw	a0, -72(s0)                     # 4-byte Folded Reload
	sw	a0, -68(s0)                     # 4-byte Folded Spill
.LBB1_14:
	.loc	6 453 82                        # linx-mcu-test/Public/tools/csmith/runtime_x86/safe_math.h:453:82
	lw	a0, -68(s0)                     # 4-byte Folded Reload
	.loc	6 453 88                        # linx-mcu-test/Public/tools/csmith/runtime_x86/safe_math.h:453:88
	bnez	a0, .LBB1_18
	j	.LBB1_15
.LBB1_15:
	.loc	6 453 92                        # linx-mcu-test/Public/tools/csmith/runtime_x86/safe_math.h:453:92
	lw	a0, -24(s0)
	sw	a0, -88(s0)                     # 4-byte Folded Spill
	lw	a0, -20(s0)
	.loc	6 453 111                       # linx-mcu-test/Public/tools/csmith/runtime_x86/safe_math.h:453:111
	sw	a0, -84(s0)                     # 4-byte Folded Spill
	lw	a2, -16(s0)
	lw	a3, -12(s0)
	li	a0, 0
	lui	a1, 524288
	.loc	6 453 109                       # linx-mcu-test/Public/tools/csmith/runtime_x86/safe_math.h:453:109
	call	__divdi3@plt
	lw	a2, -88(s0)                     # 4-byte Folded Reload
	mv	a3, a0
	lw	a0, -84(s0)                     # 4-byte Folded Reload
	.loc	6 453 96                        # linx-mcu-test/Public/tools/csmith/runtime_x86/safe_math.h:453:96
	slt	a4, a0, a1
	sw	a4, -80(s0)                     # 4-byte Folded Spill
	sltu	a2, a2, a3
	sw	a2, -76(s0)                     # 4-byte Folded Spill
	beq	a0, a1, .LBB1_17
# %bb.16:
	.loc	6 0 96                          # linx-mcu-test/Public/tools/csmith/runtime_x86/safe_math.h:0:96
	lw	a0, -80(s0)                     # 4-byte Folded Reload
	sw	a0, -76(s0)                     # 4-byte Folded Spill
.LBB1_17:
	.loc	6 453 96                        # linx-mcu-test/Public/tools/csmith/runtime_x86/safe_math.h:453:96
	lw	a0, -76(s0)                     # 4-byte Folded Reload
	.loc	6 453 118                       # linx-mcu-test/Public/tools/csmith/runtime_x86/safe_math.h:453:118
	bnez	a0, .LBB1_37
	j	.LBB1_18
.LBB1_18:
	.loc	6 453 123                       # linx-mcu-test/Public/tools/csmith/runtime_x86/safe_math.h:453:123
	lw	a1, -16(s0)
	lw	a0, -12(s0)
	li	a2, 0
	.loc	6 453 127                       # linx-mcu-test/Public/tools/csmith/runtime_x86/safe_math.h:453:127
	slt	a2, a2, a0
	sw	a2, -96(s0)                     # 4-byte Folded Spill
	snez	a1, a1
	sw	a1, -92(s0)                     # 4-byte Folded Spill
	beqz	a0, .LBB1_20
# %bb.19:
	.loc	6 0 127                         # linx-mcu-test/Public/tools/csmith/runtime_x86/safe_math.h:0:127
	lw	a0, -96(s0)                     # 4-byte Folded Reload
	sw	a0, -92(s0)                     # 4-byte Folded Spill
.LBB1_20:
	.loc	6 453 127                       # linx-mcu-test/Public/tools/csmith/runtime_x86/safe_math.h:453:127
	lw	a0, -92(s0)                     # 4-byte Folded Reload
	.loc	6 453 133                       # linx-mcu-test/Public/tools/csmith/runtime_x86/safe_math.h:453:133
	bnez	a0, .LBB1_27
	j	.LBB1_21
.LBB1_21:
	.loc	6 453 137                       # linx-mcu-test/Public/tools/csmith/runtime_x86/safe_math.h:453:137
	lw	a1, -24(s0)
	lw	a0, -20(s0)
	.loc	6 453 141                       # linx-mcu-test/Public/tools/csmith/runtime_x86/safe_math.h:453:141
	slti	a2, a0, 0
	sw	a2, -104(s0)                    # 4-byte Folded Spill
	seqz	a1, a1
	sw	a1, -100(s0)                    # 4-byte Folded Spill
	beqz	a0, .LBB1_23
# %bb.22:
	.loc	6 0 141                         # linx-mcu-test/Public/tools/csmith/runtime_x86/safe_math.h:0:141
	lw	a0, -104(s0)                    # 4-byte Folded Reload
	sw	a0, -100(s0)                    # 4-byte Folded Spill
.LBB1_23:
	.loc	6 453 141                       # linx-mcu-test/Public/tools/csmith/runtime_x86/safe_math.h:453:141
	lw	a0, -100(s0)                    # 4-byte Folded Reload
	.loc	6 453 146                       # linx-mcu-test/Public/tools/csmith/runtime_x86/safe_math.h:453:146
	bnez	a0, .LBB1_27
	j	.LBB1_24
.LBB1_24:
	.loc	6 453 150                       # linx-mcu-test/Public/tools/csmith/runtime_x86/safe_math.h:453:150
	lw	a0, -16(s0)
	sw	a0, -120(s0)                    # 4-byte Folded Spill
	lw	a0, -12(s0)
	.loc	6 453 169                       # linx-mcu-test/Public/tools/csmith/runtime_x86/safe_math.h:453:169
	sw	a0, -116(s0)                    # 4-byte Folded Spill
	lw	a2, -24(s0)
	lw	a3, -20(s0)
	li	a0, 0
	lui	a1, 524288
	.loc	6 453 167                       # linx-mcu-test/Public/tools/csmith/runtime_x86/safe_math.h:453:167
	call	__divdi3@plt
	lw	a2, -120(s0)                    # 4-byte Folded Reload
	mv	a3, a0
	lw	a0, -116(s0)                    # 4-byte Folded Reload
	.loc	6 453 154                       # linx-mcu-test/Public/tools/csmith/runtime_x86/safe_math.h:453:154
	slt	a4, a0, a1
	sw	a4, -112(s0)                    # 4-byte Folded Spill
	sltu	a2, a2, a3
	sw	a2, -108(s0)                    # 4-byte Folded Spill
	beq	a0, a1, .LBB1_26
# %bb.25:
	.loc	6 0 154                         # linx-mcu-test/Public/tools/csmith/runtime_x86/safe_math.h:0:154
	lw	a0, -112(s0)                    # 4-byte Folded Reload
	sw	a0, -108(s0)                    # 4-byte Folded Spill
.LBB1_26:
	.loc	6 453 154                       # linx-mcu-test/Public/tools/csmith/runtime_x86/safe_math.h:453:154
	lw	a0, -108(s0)                    # 4-byte Folded Reload
	.loc	6 453 176                       # linx-mcu-test/Public/tools/csmith/runtime_x86/safe_math.h:453:176
	bnez	a0, .LBB1_37
	j	.LBB1_27
.LBB1_27:
	.loc	6 453 181                       # linx-mcu-test/Public/tools/csmith/runtime_x86/safe_math.h:453:181
	lw	a1, -16(s0)
	lw	a0, -12(s0)
	li	a2, 0
	.loc	6 453 185                       # linx-mcu-test/Public/tools/csmith/runtime_x86/safe_math.h:453:185
	slt	a2, a2, a0
	sw	a2, -128(s0)                    # 4-byte Folded Spill
	snez	a1, a1
	sw	a1, -124(s0)                    # 4-byte Folded Spill
	beqz	a0, .LBB1_29
# %bb.28:
	.loc	6 0 185                         # linx-mcu-test/Public/tools/csmith/runtime_x86/safe_math.h:0:185
	lw	a0, -128(s0)                    # 4-byte Folded Reload
	sw	a0, -124(s0)                    # 4-byte Folded Spill
.LBB1_29:
	.loc	6 453 185                       # linx-mcu-test/Public/tools/csmith/runtime_x86/safe_math.h:453:185
	lw	a0, -124(s0)                    # 4-byte Folded Reload
	.loc	6 453 191                       # linx-mcu-test/Public/tools/csmith/runtime_x86/safe_math.h:453:191
	bnez	a0, .LBB1_38
	j	.LBB1_30
.LBB1_30:
	.loc	6 453 195                       # linx-mcu-test/Public/tools/csmith/runtime_x86/safe_math.h:453:195
	lw	a1, -24(s0)
	lw	a0, -20(s0)
	li	a2, 0
	.loc	6 453 199                       # linx-mcu-test/Public/tools/csmith/runtime_x86/safe_math.h:453:199
	slt	a2, a2, a0
	sw	a2, -136(s0)                    # 4-byte Folded Spill
	snez	a1, a1
	sw	a1, -132(s0)                    # 4-byte Folded Spill
	beqz	a0, .LBB1_32
# %bb.31:
	.loc	6 0 199                         # linx-mcu-test/Public/tools/csmith/runtime_x86/safe_math.h:0:199
	lw	a0, -136(s0)                    # 4-byte Folded Reload
	sw	a0, -132(s0)                    # 4-byte Folded Spill
.LBB1_32:
	.loc	6 453 199                       # linx-mcu-test/Public/tools/csmith/runtime_x86/safe_math.h:453:199
	lw	a0, -132(s0)                    # 4-byte Folded Reload
	.loc	6 453 205                       # linx-mcu-test/Public/tools/csmith/runtime_x86/safe_math.h:453:205
	bnez	a0, .LBB1_38
	j	.LBB1_33
.LBB1_33:
	.loc	6 453 209                       # linx-mcu-test/Public/tools/csmith/runtime_x86/safe_math.h:453:209
	lw	a1, -12(s0)
	lw	a0, -16(s0)
	.loc	6 453 213                       # linx-mcu-test/Public/tools/csmith/runtime_x86/safe_math.h:453:213
	or	a0, a0, a1
	.loc	6 453 219                       # linx-mcu-test/Public/tools/csmith/runtime_x86/safe_math.h:453:219
	beqz	a0, .LBB1_38
	j	.LBB1_34
.LBB1_34:
	.loc	6 453 223                       # linx-mcu-test/Public/tools/csmith/runtime_x86/safe_math.h:453:223
	lw	a0, -24(s0)
	sw	a0, -152(s0)                    # 4-byte Folded Spill
	lw	a0, -20(s0)
	.loc	6 453 242                       # linx-mcu-test/Public/tools/csmith/runtime_x86/safe_math.h:453:242
	sw	a0, -148(s0)                    # 4-byte Folded Spill
	lw	a2, -16(s0)
	lw	a3, -12(s0)
	lui	a0, 524288
	addi	a1, a0, -1
	li	a0, -1
	.loc	6 453 240                       # linx-mcu-test/Public/tools/csmith/runtime_x86/safe_math.h:453:240
	call	__divdi3@plt
	lw	a2, -152(s0)                    # 4-byte Folded Reload
	mv	a3, a0
	lw	a0, -148(s0)                    # 4-byte Folded Reload
	.loc	6 453 227                       # linx-mcu-test/Public/tools/csmith/runtime_x86/safe_math.h:453:227
	slt	a4, a0, a1
	xori	a4, a4, 1
	sw	a4, -144(s0)                    # 4-byte Folded Spill
	sltu	a2, a2, a3
	xori	a2, a2, 1
	sw	a2, -140(s0)                    # 4-byte Folded Spill
	beq	a0, a1, .LBB1_36
# %bb.35:
	.loc	6 0 227                         # linx-mcu-test/Public/tools/csmith/runtime_x86/safe_math.h:0:227
	lw	a0, -144(s0)                    # 4-byte Folded Reload
	sw	a0, -140(s0)                    # 4-byte Folded Spill
.LBB1_36:
	.loc	6 453 227                       # linx-mcu-test/Public/tools/csmith/runtime_x86/safe_math.h:453:227
	lw	a0, -140(s0)                    # 4-byte Folded Reload
	.loc	6 453 5                         # linx-mcu-test/Public/tools/csmith/runtime_x86/safe_math.h:453:5
	bnez	a0, .LBB1_38
	j	.LBB1_37
.LBB1_37:
	.loc	6 454 6 is_stmt 1               # linx-mcu-test/Public/tools/csmith/runtime_x86/safe_math.h:454:6
